 ConEmuTh.x64

 Timestamp is 59f1ba80 (Thu Oct 26 13:35:44 2017)

 Preferred load address is 0000000180000000

 Start         Length     Name                   Class
 0001:00000000 0001f2f0H .text$mn                CODE
 0001:0001f2f0 000000e0H .text$mn$00             CODE
 0001:0001f3d0 000004d0H .text$x                 CODE
 0002:00000000 00000660H .idata$5                DATA
 0002:00000660 00000020H .00cfg                  DATA
 0002:00000680 00000008H .CRT$XCA                DATA
 0002:00000688 00000008H .CRT$XCZ                DATA
 0002:00000690 00000008H .CRT$XIA                DATA
 0002:00000698 00000018H .CRT$XIC                DATA
 0002:000006b0 00000008H .CRT$XIZ                DATA
 0002:000006b8 00000008H .CRT$XPA                DATA
 0002:000006c0 00000010H .CRT$XPX                DATA
 0002:000006d0 00000008H .CRT$XPXA               DATA
 0002:000006d8 00000008H .CRT$XPZ                DATA
 0002:000006e0 00000008H .CRT$XTA                DATA
 0002:000006e8 00000008H .CRT$XTZ                DATA
 0002:000006f0 00000000H .gfids$x                DATA
 0002:000006f0 00000000H .gfids$y                DATA
 0002:000006f0 00008a98H .rdata                  DATA
 0002:00009188 0000035cH .rdata$r                DATA
 0002:000094e4 0000032cH .rdata$zzzdbg           DATA
 0002:00009810 00000008H .rtc$IAA                DATA
 0002:00009818 00000008H .rtc$IZZ                DATA
 0002:00009820 00000008H .rtc$TAA                DATA
 0002:00009828 00000008H .rtc$TZZ                DATA
 0002:00009830 00001838H .xdata                  DATA
 0002:0000b068 00000088H .xdata$x                DATA
 0002:0000b0f0 0000016cH .edata                  DATA
 0002:0000b25c 0000008cH .idata$2                DATA
 0002:0000b2e8 00000018H .idata$3                DATA
 0002:0000b300 00000660H .idata$4                DATA
 0002:0000b960 00000e06H .idata$6                DATA
 0003:00000000 000009b0H .data                   DATA
 0003:000009b0 00000180H .data$r                 DATA
 0003:00000b30 0002b0d0H .bss                    DATA
 0004:00000000 00001ba8H .pdata                  DATA
 0005:00000000 00000130H .rsrc$01                DATA
 0005:00000130 00001558H .rsrc$02                DATA

  Address         Publics by Value              Rva+Base               Lib:Object

 0000:00000000       __dynamic_value_reloc_table 0000000000000000     <absolute>
 0000:00000000       __guard_iat_count          0000000000000000     <absolute>
 0000:00000000       __hybrid_code_map          0000000000000000     <absolute>
 0000:00000000       __hybrid_code_map_count    0000000000000000     <absolute>
 0000:00000000       __guard_iat_table          0000000000000000     <absolute>
 0000:00000000       __hybrid_auxiliary_iat     0000000000000000     <absolute>
 0000:00000000       __guard_longjmp_table      0000000000000000     <absolute>
 0000:00000000       __guard_longjmp_count      0000000000000000     <absolute>
 0000:00000000       __guard_fids_count         0000000000000000     <absolute>
 0000:00000000       __enclave_config           0000000000000000     <absolute>
 0000:00000000       ___safe_se_handler_table   0000000000000000     <absolute>
 0000:00000000       ___safe_se_handler_count   0000000000000000     <absolute>
 0000:00000000       __guard_fids_table         0000000000000000     <absolute>
 0000:00000100       __guard_flags              0000000000000100     <absolute>
 0000:00000000       __ImageBase                0000000180000000     <linker-defined>
 0001:00000000       ?ExitFARW3@@YAXPEAX@Z      0000000180001000 f   ConEmuTh.obj
 0001:00000000       ExitFARW                   0000000180001000 f   ConEmuTh.obj
 0001:00000038       ProcessSynchroEventW       0000000180001038 f   ConEmuTh.obj
 0001:00000040       ??1?$MFileMapping@UPanelViewSetMapping@@@@QEAA@XZ 0000000180001040 f i ConEmuTh.obj
 0001:00000094       ??_G?$MFileMapping@Utag_DetectedDialog@@@@QEAAPEAXI@Z 0000000180001094 f i ConEmuTh.obj
 0001:0000026c       ?CheckConEmu@@YAHH@Z       000000018000126c f   ConEmuTh.obj
 0001:00000374       ?CheckPanelSettings@@YAHH@Z 0000000180001374 f   ConEmuTh.obj
 0001:000003ac       ?CheckVarsInitialized@@YAXXZ 00000001800013ac f   ConEmuTh.obj
 0001:000004fc       ?CheckWindows@@YA_NXZ      00000001800014fc f   ConEmuTh.obj
 0001:0000059c       ?EntryPoint@@YAXH_J_N@Z    000000018000159c f   ConEmuTh.obj
 0001:00000754       ?ExecuteInMainThread@@YAXPEAUConEmuThSynchroArg@@@Z 0000000180001754 f   ConEmuTh.obj
 0001:000007d8       ?ExitPlugin@@YAXXZ         00000001800017d8 f   ConEmuTh.obj
 0001:00000910       ?FreeItem@CePluginPanelItem@@QEAAXXZ 0000000180001910 f   ConEmuTh.obj
 0001:00000940       ?FreeUserData@CePluginPanelItem@@QEAAXXZ 0000000180001940 f   ConEmuTh.obj
 0001:00000994       ?GetActivePanel@@YAPEAUCeFullPanelInfo@@XZ 0000000180001994 f   ConEmuTh.obj
 0001:000009d8       ?GetFarRect@@YAHPEAU_SMALL_RECT@@@Z 00000001800019d8 f   ConEmuTh.obj
 0001:00000a48       ?GetFocusedThumbnails@@YAPEAUCeFullPanelInfo@@XZ 0000000180001a48 f   ConEmuTh.obj
 0001:00000aa4       ?GetMainThreadId@@YAKXZ    0000000180001aa4 f   ConEmuTh.obj
 0001:00000b58       ?GetMsgW@@YAPEB_WH@Z       0000000180001b58 f   ConEmuTh.obj
 0001:00000b94       ?GetPluginInfoWcmn@@YAXPEAX@Z 0000000180001b94 f   ConEmuTh.obj
 0001:00000bb8       ?InitName@?$MFileMapping@Utag_DetectedDialog@@@@QEAAPEB_WPEB_WKK@Z 0000000180001bb8 f i ConEmuTh.obj
 0001:00000bb8       ?InitName@?$MFileMapping@UPanelViewSetMapping@@@@QEAAPEB_WPEB_WKK@Z 0000000180001bb8 f i ConEmuTh.obj
 0001:00000c50       ?InternalOpenCreate@?$MFileMapping@UPanelViewSetMapping@@@@IEAAPEAUPanelViewSetMapping@@HHH@Z 0000000180001c50 f i ConEmuTh.obj
 0001:00000e00       ?InternalOpenCreate@?$MFileMapping@Utag_DetectedDialog@@@@IEAAPEAUtag_DetectedDialog@@HHH@Z 0000000180001e00 f i ConEmuTh.obj
 0001:00000fb0       ?IsThumbnailsActive@@YAPEAUCeFullPanelInfo@@H@Z 0000000180001fb0 f   ConEmuTh.obj
 0001:000011bc       ?LoadFarVersion@@YAHXZ     00000001800021bc f   ConEmuTh.obj
 0001:00001564       ?LoadPanelItemInfo@@YAXPEAUCeFullPanelInfo@@_J@Z 0000000180002564 f   ConEmuTh.obj
 0001:0000159c       ?LoadThSet@@YAHK@Z         000000018000259c f   ConEmuTh.obj
 0001:000017d8       ?OnPostPeekConsole@@YAHPEAXPEAU_INPUT_RECORD@@KPEAKPEAH@Z 00000001800027d8 f   ConEmuTh.obj
 0001:00001818       ?OnPostReadConsole@@YAHPEAXPEAU_INPUT_RECORD@@KPEAKPEAH@Z 0000000180002818 f   ConEmuTh.obj
 0001:0000185c       ?OnPrePeekConsole@@YAHPEAXPEAU_INPUT_RECORD@@KPEAKPEAH@Z 000000018000285c f   ConEmuTh.obj
 0001:00001920       ?OnPreReadConsole@@YAHPEAXPEAU_INPUT_RECORD@@KPEAKPEAH@Z 0000000180002920 f   ConEmuTh.obj
 0001:0000193c       ?OnPreWriteConsoleOutput@@YAHPEAXPEBU_CHAR_INFO@@U_COORD@@2PEAU_SMALL_RECT@@@Z 000000018000293c f   ConEmuTh.obj
 0001:00001abc       ?OnReadyForPanelsReload@@YAXXZ 0000000180002abc f   ConEmuTh.obj
 0001:00001c28       ?OpenPluginWcmn@@YAPEAXH_J_N@Z 0000000180002c28 f   ConEmuTh.obj
 0001:00001c94       ?OpenW@@YAPEAXPEBUOpenInfo@@@Z 0000000180002c94 f   ConEmuTh.obj
 0001:00001cc4       ?PostMacro@@YAXPEA_W@Z     0000000180002cc4 f   ConEmuTh.obj
 0001:00001e74       ?ProcessConsoleInput@@YAHHPEAU_INPUT_RECORD@@KPEAK@Z 0000000180002e74 f   ConEmuTh.obj
 0001:00002198       ?ProcessSynchroEventCommon@@YAHHPEAX@Z 0000000180003198 f   ConEmuTh.obj
 0001:00002304       ?ReloadPanelsInfo@@YAXXZ   0000000180003304 f   ConEmuTh.obj
 0001:000024b0       ?ReloadResourcesW@@YAXXZ   00000001800034b0 f   ConEmuTh.obj
 0001:0000254c       ?ResetUngetBuffer@@YAXXZ   000000018000354c f   ConEmuTh.obj
 0001:0000255c       ?SavePanelViewState@@YAXHK@Z 000000018000355c f   ConEmuTh.obj
 0001:000025a4       ?SettingsLoad@@YAHPEB_WPEAK@Z 00000001800035a4 f   ConEmuTh.obj
 0001:000025dc       ?SettingsLoadOther@@YAXPEB_W@Z 00000001800035dc f   ConEmuTh.obj
 0001:00002754       ?SettingsLoadReg@@YAHPEB_W0PEAK@Z 0000000180003754 f   ConEmuTh.obj
 0001:000027f4       ?SettingsSave@@YAXPEB_WPEAK@Z 00000001800037f4 f   ConEmuTh.obj
 0001:0000282c       ?SettingsSaveReg@@YAXPEB_W0PEAK@Z 000000018000382c f   ConEmuTh.obj
 0001:000028b4       ?ShowLastError@@YAHXZ      00000001800038b4 f   ConEmuTh.obj
 0001:0000294c       ?ShowMessage@@YAHHH@Z      000000018000394c f   ConEmuTh.obj
 0001:00002984       ?ShowPluginMenu@@YAHXZ     0000000180003984 f   ConEmuTh.obj
 0001:000029bc       ?StartPlugin@@YAXH@Z       00000001800039bc f   ConEmuTh.obj
 0001:00002b2c       ?StringCchCatW@@YAJPEA_W_KPEB_W@Z 0000000180003b2c f i ConEmuTh.obj
 0001:00002bfc       ?StringCchCopyW@@YAJPEA_W_KPEB_W@Z 0000000180003bfc f i ConEmuTh.obj
 0001:00002c74       ?UpdateEnvVar@@YAXH@Z      0000000180003c74 f   ConEmuTh.obj
 0001:00002ca4       ?isPreloadByDefault@@YA_NXZ 0000000180003ca4 f   ConEmuTh.obj
 0001:00002ccc       DllMain                    0000000180003ccc f   ConEmuTh.obj
 0001:00002d98       GetMinFarVersionW          0000000180003d98 f   ConEmuTh.obj
 0001:00002da0       SetStartupInfoW            0000000180003da0 f   ConEmuTh.obj
 0001:00002e00       ?CheckFarPanelsW1900@@YA_NXZ 0000000180003e00 f   ConEmuTh1900.obj
 0001:00002e78       ?CheckPanelSettingsW1900@@YAHH@Z 0000000180003e78 f   ConEmuTh1900.obj
 0001:00002f40       ?Color2BgIndex@Far3Color@@SAXKHAEAGPEBK@Z 0000000180003f40 f i ConEmuTh1900.obj
 0001:00003044       ?Color2FgIndex@Far3Color@@SAXKAEAGPEBK@Z 0000000180004044 f i ConEmuTh1900.obj
 0001:00003124       ?ExecuteInMainThreadW1900@@YAXPEAUConEmuThSynchroArg@@@Z 0000000180004124 f   ConEmuTh1900.obj
 0001:00003150       ?ExitFARW1900@@YAXXZ       0000000180004150 f   ConEmuTh1900.obj
 0001:000031a8       ?FarColor_3_2@@YAEAEBUFarColor@@@Z 00000001800041a8 f i ConEmuTh1900.obj
 0001:00003254       ?GetFarRectW1900@@YAXPEAU_SMALL_RECT@@@Z 0000000180004254 f   ConEmuTh1900.obj
 0001:000032e8       ?GetMsgW1900@@YAPEB_WH@Z   00000001800042e8 f   ConEmuTh1900.obj
 0001:00003314       ?GetPluginInfoW1900@@YAXPEAX@Z 0000000180004314 f   ConEmuTh1900.obj
 0001:000034d0       ?LoadPanelInfoW1900@@YAHH@Z 00000001800044d0 f   ConEmuTh1900.obj
 0001:00003998       ?LoadPanelItemInfoW1900@@YAXPEAUCeFullPanelInfo@@_J@Z 0000000180004998 f   ConEmuTh1900.obj
 0001:00003be0       ?OpenW1900@@YAPEAXPEBX@Z   0000000180004be0 f   ConEmuTh1900.obj
 0001:00003c40       ?PostMacroW1900@@YAXPEA_W@Z 0000000180004c40 f   ConEmuTh1900.obj
 0001:00003cdc       ?ReloadPanelsInfoW1900@@YAXXZ 0000000180004cdc f   ConEmuTh1900.obj
 0001:00003d00       ?SetCurrentPanelItemW1900@@YAXH_J0@Z 0000000180004d00 f   ConEmuTh1900.obj
 0001:00003e30       ?SetStartupInfoW1900@@YAXPEAX@Z 0000000180004e30 f   ConEmuTh1900.obj
 0001:00003f94       ?SettingsLoadW1900@@YAHPEB_WPEAK@Z 0000000180004f94 f   ConEmuTh1900.obj
 0001:00004078       ?SettingsSaveW1900@@YAXPEB_WPEAK@Z 0000000180005078 f   ConEmuTh1900.obj
 0001:00004164       ?ShowMessageW1900@@YAHHH@Z 0000000180005164 f   ConEmuTh1900.obj
 0001:000041ac       ?ShowMessageW1900@@YAHPEB_WH@Z 00000001800051ac f   ConEmuTh1900.obj
 0001:00004230       ?ShowPluginMenuW1900@@YAHXZ 0000000180005230 f   ConEmuTh1900.obj
 0001:00004444       ?CheckFarPanelsW2800@@YA_NXZ 0000000180005444 f   ConEmuTh2800.obj
 0001:000044d4       ?CheckPanelSettingsW2800@@YAHH@Z 00000001800054d4 f   ConEmuTh2800.obj
 0001:000045a0       ?ExecuteInMainThreadW2800@@YAXPEAUConEmuThSynchroArg@@@Z 00000001800055a0 f   ConEmuTh2800.obj
 0001:000045cc       ?ExitFARW2800@@YAXXZ       00000001800055cc f   ConEmuTh2800.obj
 0001:00004624       ?FreePanelItemUserData2800@@YAXPEAX_KP6A_JXZ@Z 0000000180005624 f   ConEmuTh2800.obj
 0001:00004658       ?GetFarRectW2800@@YAXPEAU_SMALL_RECT@@@Z 0000000180005658 f   ConEmuTh2800.obj
 0001:000046f4       ?GetMsgW2800@@YAPEB_WH@Z   00000001800056f4 f   ConEmuTh2800.obj
 0001:00004720       ?GetPluginInfoW2800@@YAXPEAX@Z 0000000180005720 f   ConEmuTh2800.obj
 0001:000048dc       ?LoadPanelInfoW2800@@YAHH@Z 00000001800058dc f   ConEmuTh2800.obj
 0001:00004da4       ?LoadPanelItemInfoW2800@@YAXPEAUCeFullPanelInfo@@_J@Z 0000000180005da4 f   ConEmuTh2800.obj
 0001:00005028       ?OpenW2800@@YAPEAXPEBX@Z   0000000180006028 f   ConEmuTh2800.obj
 0001:000050e8       ?PostMacroW2800@@YAXPEA_W@Z 00000001800060e8 f   ConEmuTh2800.obj
 0001:00005188       ?ProcessSynchroEventW3@@YA_JPEAX@Z 0000000180006188 f   ConEmuTh2800.obj
 0001:000051a0       ?ReloadPanelsInfoW2800@@YAXXZ 00000001800061a0 f   ConEmuTh2800.obj
 0001:000051c4       ?SetCurrentPanelItemW2800@@YAXH_J0@Z 00000001800061c4 f   ConEmuTh2800.obj
 0001:00005320       ?SetCurrentPanelItemW2800Int@@YAXH_J0@Z 0000000180006320 f   ConEmuTh2800.obj
 0001:00005454       ?SetStartupInfoW2800@@YAXPEAX@Z 0000000180006454 f   ConEmuTh2800.obj
 0001:000055b8       ?SettingsLoadW2800@@YAHPEB_WPEAK@Z 00000001800065b8 f   ConEmuTh2800.obj
 0001:000056ac       ?SettingsSaveW2800@@YAXPEB_WPEAK@Z 00000001800066ac f   ConEmuTh2800.obj
 0001:000057a0       ?ShowMessageW2800@@YAHHH@Z 00000001800067a0 f   ConEmuTh2800.obj
 0001:000057ec       ?ShowMessageW2800@@YAHPEB_WH@Z 00000001800067ec f   ConEmuTh2800.obj
 0001:00005874       ?ShowPluginMenuW2800@@YAHXZ 0000000180006874 f   ConEmuTh2800.obj
 0001:00005a98       GetGlobalInfoW             0000000180006a98 f   ConEmuTh2800.obj
 0001:00005b30       ?CheckFarPanelsW995@@YA_NXZ 0000000180006b30 f   ConEmuTh995.obj
 0001:00005ba8       ?CheckPanelSettingsW995@@YAHH@Z 0000000180006ba8 f   ConEmuTh995.obj
 0001:00005c40       ?ExecuteInMainThreadW995@@YAXPEAUConEmuThSynchroArg@@@Z 0000000180006c40 f   ConEmuTh995.obj
 0001:00005c68       ?ExitFARW995@@YAXXZ        0000000180006c68 f   ConEmuTh995.obj
 0001:00005ce4       ?GetFarRectW995@@YAXPEAU_SMALL_RECT@@@Z 0000000180006ce4 f   ConEmuTh995.obj
 0001:00005d24       ?GetMsgW995@@YAPEB_WH@Z    0000000180006d24 f   ConEmuTh995.obj
 0001:00005d4c       ?GetPluginInfoW995@@YAXPEAX@Z 0000000180006d4c f   ConEmuTh995.obj
 0001:00005e20       ?LoadPanelInfo995@@YAHH@Z  0000000180006e20 f   ConEmuTh995.obj
 0001:00006174       ?LoadPanelItemInfoW995@@YAXPEAUCeFullPanelInfo@@_J@Z 0000000180007174 f   ConEmuTh995.obj
 0001:00006314       ?PostMacroW995@@YAXPEA_W@Z 0000000180007314 f   ConEmuTh995.obj
 0001:00006394       ?ReloadPanelsInfoW995@@YAXXZ 0000000180007394 f   ConEmuTh995.obj
 0001:000063b8       ?SetCurrentPanelItemW995@@YAXH_J0@Z 00000001800073b8 f   ConEmuTh995.obj
 0001:000064e0       ?SetStartupInfoW995@@YAXPEAX@Z 00000001800074e0 f   ConEmuTh995.obj
 0001:000066b4       ?SettingsLoadOtherW995@@YAXXZ 00000001800076b4 f   ConEmuTh995.obj
 0001:000066c0       ?SettingsLoadW995@@YAHPEB_WPEAK@Z 00000001800076c0 f   ConEmuTh995.obj
 0001:000066d4       ?SettingsSaveW995@@YAXPEB_WPEAK@Z 00000001800076d4 f   ConEmuTh995.obj
 0001:000066e8       ?ShowMessageW995@@YAHHH@Z  00000001800076e8 f   ConEmuTh995.obj
 0001:0000672c       ?ShowMessageW995@@YAHPEB_WH@Z 000000018000772c f   ConEmuTh995.obj
 0001:0000676c       ?ShowPluginMenuW995@@YAHXZ 000000018000776c f   ConEmuTh995.obj
 0001:00006918       OpenPluginW                0000000180007918 f   ConEmuTh995.obj
 0001:00006938       ?CheckFarPanelsA@@YA_NXZ   0000000180007938 f   ConEmuThA.obj
 0001:000069c4       ?CheckPanelSettingsA@@YAHH@Z 00000001800079c4 f   ConEmuThA.obj
 0001:00006a74       ?GetMsgA@@YAPEB_WHPEA_W@Z  0000000180007a74 f   ConEmuThA.obj
 0001:00006b70       ?LoadPanelInfoA@@YAHH@Z    0000000180007b70 f   ConEmuThA.obj
 0001:00006f5c       ?PostMacroA@@YAXPEAD@Z     0000000180007f5c f   ConEmuThA.obj
 0001:00006fd8       ?ReloadPanelsInfoA@@YAXXZ  0000000180007fd8 f   ConEmuThA.obj
 0001:00006ffc       ?ReloadResourcesA@@YAXXZ   0000000180007ffc f   ConEmuThA.obj
 0001:000070d8       ?SetCurrentPanelItemA@@YAXH_J0@Z 00000001800080d8 f   ConEmuThA.obj
 0001:00007208       ?SettingsLoadA@@YAHPEB_WPEAK@Z 0000000180008208 f   ConEmuThA.obj
 0001:0000721c       ?SettingsLoadOtherA@@YAXXZ 000000018000821c f   ConEmuThA.obj
 0001:00007228       ?SettingsSaveA@@YAXPEB_WPEAK@Z 0000000180008228 f   ConEmuThA.obj
 0001:0000723c       ?ShowMessageA@@YAHHH@Z     000000018000823c f   ConEmuThA.obj
 0001:0000728c       ?ShowMessageA@@YAHPEBDH@Z  000000018000828c f   ConEmuThA.obj
 0001:000072d0       ?ShowPluginMenuA@@YAHXZ    00000001800082d0 f   ConEmuThA.obj
 0001:000074c8       ExitFAR                    00000001800084c8 f   ConEmuThA.obj
 0001:00007548       GetMinFarVersion           0000000180008548 f   ConEmuThA.obj
 0001:00007578       GetPluginInfo              0000000180008578 f   ConEmuThA.obj
 0001:000075f8       OpenPlugin                 00000001800085f8 f   ConEmuThA.obj
 0001:00007634       SetStartupInfo             0000000180008634 f   ConEmuThA.obj
 0001:0000782c       ?BisItem2CeItem@CeFullPanelInfo@@QEAAH_JH_KKKHH@Z 000000018000882c f   Display.obj
 0001:000078cc       ?CalcTopPanelItem@CeFullPanelInfo@@QEAA_J_J0@Z 00000001800088cc f   Display.obj
 0001:000079b4       ?Close@CeFullPanelInfo@@QEAAXXZ 00000001800089b4 f   Display.obj
 0001:000079f8       ?CreateView@CeFullPanelInfo@@QEAAPEAUHWND__@@XZ 00000001800089f8 f   Display.obj
 0001:00007da4       ?DisplayReloadPanel@CeFullPanelInfo@@QEAAXXZ 0000000180008da4 f   Display.obj
 0001:00007de0       ?DisplayThread@CeFullPanelInfo@@SAKPEAX@Z 0000000180008de0 f   Display.obj
 0001:00007f00       ?DisplayWndProc@CeFullPanelInfo@@SA_JPEAUHWND__@@I_K_J@Z 0000000180008f00 f   Display.obj
 0001:00008450       ?DrawItemText@CeFullPanelInfo@@QEAAHPEAUHDC__@@PEAUtagRECT@@1PEAUCePluginPanelItem@@PEB_WPEAUHBRUSH__@@H@Z 0000000180009450 f   Display.obj
 0001:00008a54       ?FarItem2CeItem@CeFullPanelInfo@@QEAAH_JPEB_W1KU_FILETIME@@_KHPEAX3P6A_JXZ3K@Z 0000000180009a54 f   Display.obj
 0001:00008dcc       ?FinalRelease@CeFullPanelInfo@@QEAAXXZ 0000000180009dcc f   Display.obj
 0001:00008f14       ?GetConCoordFromIndex@CeFullPanelInfo@@QEAAH_JAEAU_COORD@@@Z 0000000180009f14 f   Display.obj
 0001:00008fc8       ?GetIndexFromWndCoord@CeFullPanelInfo@@QEAAHHHAEA_J@Z 0000000180009fc8 f   Display.obj
 0001:00009060       ?GetItemColors@CeFullPanelInfo@@QEAAPEAUHBRUSH__@@_JPEAUCePluginPanelItem@@PEAUCePluginPanelItemColor@@HAEAK3@Z 000000018000a060 f   Display.obj
 0001:000090c8       ?Invalidate@CeFullPanelInfo@@QEAAXXZ 000000018000a0c8 f   Display.obj
 0001:0000911c       ?InvalidateAll@CeFullPanelInfo@@SAXXZ 000000018000a11c f   Display.obj
 0001:0000916c       ?LoadItemColors@CeFullPanelInfo@@QEAAX_JPEAUCePluginPanelItem@@PEAUCePluginPanelItemColor@@HH@Z 000000018000a16c f   Display.obj
 0001:000093dc       ?OnSettingsChanged@CeFullPanelInfo@@QEAAHH@Z 000000018000a3dc f   Display.obj
 0001:00009510       ?Paint@CeFullPanelInfo@@QEAAXPEAUHWND__@@AEAUtagPAINTSTRUCT@@AEAUtagRECT@@@Z 000000018000a510 f   Display.obj
 0001:00009e48       ?PaintItem@CeFullPanelInfo@@QEAAHPEAUHDC__@@_JHHPEAUCePluginPanelItem@@PEAUCePluginPanelItemColor@@HHPEAUHBRUSH__@@4K@Z 000000018000ae48 f   Display.obj
 0001:0000a36c       ?ReallocItems@CeFullPanelInfo@@QEAAH_J@Z 000000018000b36c f   Display.obj
 0001:0000a51c       ?RegisterPanelView@CeFullPanelInfo@@QEAAHXZ 000000018000b51c f   Display.obj
 0001:0000a7fc       ?RequestSetPos@CeFullPanelInfo@@QEAAX_J0H@Z 000000018000b7fc f   Display.obj
 0001:0000a8e0       ?UnregisterPanelView@CeFullPanelInfo@@QEAAH_N@Z 000000018000b8e0 f   Display.obj
 0001:0000aa1c       ??$SafeDelete@UMSectionSimple@@@@YAXAEAPEAUMSectionSimple@@@Z 000000018000ba1c f i ImgCache.obj
 0001:0000aa70       ??0?$CQueueProcessor@PEAUIMAGE_CACHE_INFO@@@@QEAA@XZ 000000018000ba70 f i ImgCache.obj
 0001:0000aaf4       ??0CImgCache@@QEAA@PEAUHINSTANCE__@@@Z 000000018000baf4 f   ImgCache.obj
 0001:0000ac30       ??1?$CQueueProcessor@PEAUIMAGE_CACHE_INFO@@@@UEAA@XZ 000000018000bc30 f i ImgCache.obj
 0001:0000acf8       ??1CImgCache@@QEAA@XZ      000000018000bcf8 f   ImgCache.obj
 0001:0000adc0       ??_E?$CQueueProcessor@PEAUIMAGE_CACHE_INFO@@@@UEAAPEAXI@Z 000000018000bdc0 f i ImgCache.obj
 0001:0000adc0       ??_GCImgLoader@@UEAAPEAXI@Z 000000018000bdc0 f i ImgCache.obj
 0001:0000adc0       ??_G?$CQueueProcessor@PEAUIMAGE_CACHE_INFO@@@@UEAAPEAXI@Z 000000018000bdc0 f i ImgCache.obj
 0001:0000adc0       ??_ECImgLoader@@UEAAPEAXI@Z 000000018000bdc0 f i ImgCache.obj
 0001:0000adf4       ?CheckDrawDibCreated@CImgCache@@IEAAHXZ 000000018000bdf4 f   ImgCache.obj
 0001:0000af64       ?CheckLoadDibCreated@CImgCache@@IEAAHXZ 000000018000bf64 f   ImgCache.obj
 0001:0000b0d4       ?CheckThread@?$CQueueProcessor@PEAUIMAGE_CACHE_INFO@@@@IEAAJXZ 000000018000c0d4 f i ImgCache.obj
 0001:0000b194       ?ClearQueue@?$CQueueProcessor@PEAUIMAGE_CACHE_INFO@@@@AEAAXXZ 000000018000c194 f i ImgCache.obj
 0001:0000b230       ?CopyBits@CImgCache@@IEAAXU_COORD@@PEAEK01@Z 000000018000c230 f   ImgCache.obj
 0001:0000b2bc       ?CopyItem@?$CQueueProcessor@PEAUIMAGE_CACHE_INFO@@@@MEAAXPEBQEAUIMAGE_CACHE_INFO@@PEAPEAU2@@Z 000000018000c2bc f i ImgCache.obj
 0001:0000b2dc       ?FindInCache@CImgCache@@IEAAHPEAUCePluginPanelItem@@PEAHI@Z 000000018000c2dc f   ImgCache.obj
 0001:0000b4fc       ?FindOrCreate@?$CQueueProcessor@PEAUIMAGE_CACHE_INFO@@@@AEAAPEAUProcessingItem@1@AEBQEAUIMAGE_CACHE_INFO@@_J_NW4ProcessingPriority@@@Z 000000018000c4fc f i ImgCache.obj
 0001:0000b750       ?FreeModules@CImgCache@@IEAAXXZ 000000018000c750 f   ImgCache.obj
 0001:0000b7bc       ?Init@CImgCache@@QEAAXK@Z  000000018000c7bc f   ImgCache.obj
 0001:0000b81c       ?InitializeQueue@?$CQueueProcessor@PEAUIMAGE_CACHE_INFO@@@@AEAAXH@Z 000000018000c81c f i ImgCache.obj
 0001:0000b8e8       ?IsEqual@?$CQueueProcessor@PEAUIMAGE_CACHE_INFO@@@@MEAA_NAEBQEAUIMAGE_CACHE_INFO@@_J01@Z 000000018000c8e8 f i ImgCache.obj
 0001:0000b904       ?IsEqual@CImgLoader@@UEAA_NAEAPEBUIMAGE_CACHE_INFO@@_JAEAPEAU2@1@Z 000000018000c904 f i ImgCache.obj
 0001:0000b91c       ?IsStopRequested@?$CQueueProcessor@PEAUIMAGE_CACHE_INFO@@@@UEAA_NAEBQEAUIMAGE_CACHE_INFO@@@Z 000000018000c91c f i ImgCache.obj
 0001:0000b92c       ?IsTerminationRequested@CImgLoader@@UEAA_NXZ 000000018000c92c f i ImgCache.obj
 0001:0000b92c       ?IsTerminationRequested@?$CQueueProcessor@PEAUIMAGE_CACHE_INFO@@@@MEAA_NXZ 000000018000c92c f i ImgCache.obj
 0001:0000b930       ?LoadModules@CImgCache@@IEAAXXZ 000000018000c930 f   ImgCache.obj
 0001:0000bb98       ?LoadShellIcon@CImgCache@@QEAAHPEAUIMAGE_CACHE_INFO@@H@Z 000000018000cb98 f   ImgCache.obj
 0001:0000bedc       ?LoadThumbnail@CImgCache@@QEAAHPEAUIMAGE_CACHE_INFO@@@Z 000000018000cedc f   ImgCache.obj
 0001:0000c458       ?OnThreadStarted@?$CQueueProcessor@PEAUIMAGE_CACHE_INFO@@@@MEAAJXZ 000000018000d458 f i ImgCache.obj
 0001:0000c45c       ?OnThreadStarted@CImgLoader@@UEAAJXZ 000000018000d45c f i ImgCache.obj
 0001:0000c470       ?OnThreadStopped@?$CQueueProcessor@PEAUIMAGE_CACHE_INFO@@@@MEAAXXZ 000000018000d470 f i ImgCache.obj
 0001:0000c470       ?OnItemFailed@?$CQueueProcessor@PEAUIMAGE_CACHE_INFO@@@@MEAAXAEAPEAUIMAGE_CACHE_INFO@@_J@Z 000000018000d470 f i ImgCache.obj
 0001:0000c470       ?LoadPanelItemInfoA@@YAXPEAUCeFullPanelInfo@@_J@Z 000000018000d470 f i ConEmuThA.obj
 0001:0000c470       _guard_check_icall_nop     000000018000d470 f i LIBCMT:guard_support.obj
 0001:0000c470       ?SettingsLoadOtherW1900@@YAXXZ 000000018000d470 f i ConEmuTh1900.obj
 0001:0000c470       ?ApplyChanges@?$CQueueProcessor@PEAUIMAGE_CACHE_INFO@@@@MEAAXAEAPEAUIMAGE_CACHE_INFO@@AEBQEAU2@@Z 000000018000d470 f i ImgCache.obj
 0001:0000c470       ?OnItemReady@?$CQueueProcessor@PEAUIMAGE_CACHE_INFO@@@@MEAAXAEAPEAUIMAGE_CACHE_INFO@@_J@Z 000000018000d470 f i ImgCache.obj
 0001:0000c470       ?SettingsLoadOtherW2800@@YAXXZ 000000018000d470 f i ConEmuTh2800.obj
 0001:0000c470       ?FreeItem@?$CQueueProcessor@PEAUIMAGE_CACHE_INFO@@@@MEAAXAEBQEAUIMAGE_CACHE_INFO@@@Z 000000018000d470 f i ImgCache.obj
 0001:0000c474       ?OnThreadStopped@CImgLoader@@UEAAXXZ 000000018000d474 f i ImgCache.obj
 0001:0000c47c       ?PaintItem@CImgCache@@QEAAHPEAUHDC__@@HHHPEAUCePluginPanelItem@@PEAPEB_WPEAH@Z 000000018000d47c f   ImgCache.obj
 0001:0000c9a4       ?ProcessItem@?$CQueueProcessor@PEAUIMAGE_CACHE_INFO@@@@IEAAJPEAUProcessingItem@1@@Z 000000018000d9a4 f i ImgCache.obj
 0001:0000c9d0       ?ProcessItem@?$CQueueProcessor@PEAUIMAGE_CACHE_INFO@@@@MEAAJAEAPEAUIMAGE_CACHE_INFO@@_J@Z 000000018000d9d0 f i ImgCache.obj
 0001:0000c9d8       ?ProcessItem@CImgLoader@@UEAAJAEAPEAUIMAGE_CACHE_INFO@@_J@Z 000000018000d9d8 f i ImgCache.obj
 0001:0000ca30       ?ProcessingStep@?$CQueueProcessor@PEAUIMAGE_CACHE_INFO@@@@IEAA_NXZ 000000018000da30 f i ImgCache.obj
 0001:0000cc48       ?ProcessingThread@?$CQueueProcessor@PEAUIMAGE_CACHE_INFO@@@@KAKPEAX@Z 000000018000dc48 f i ImgCache.obj
 0001:0000cc78       ?RequestItem@CImgCache@@QEAAHPEAUCePluginPanelItem@@I@Z 000000018000dc78 f   ImgCache.obj
 0001:0000cd78       ?Reset@CImgCache@@QEAAXXZ  000000018000dd78 f   ImgCache.obj
 0001:0000cf80       ?SetCacheLocation@CImgCache@@QEAAXPEB_W@Z 000000018000df80 f   ImgCache.obj
 0001:0000cfff       GetFileVersionInfoSizeW    000000018000dfff f   version:VERSION.dll
 0001:0000d005       GetFileVersionInfoW        000000018000e005 f   version:VERSION.dll
 0001:0000d00b       VerQueryValueW             000000018000e00b f   version:VERSION.dll
 0001:0000d011       CreateToolhelp32Snapshot   000000018000e011 f   kernel32:KERNEL32.dll
 0001:0000d017       Thread32First              000000018000e017 f   kernel32:KERNEL32.dll
 0001:0000d01d       Thread32Next               000000018000e01d f   kernel32:KERNEL32.dll
 0001:0000d024       ??2@YAPEAX_K@Z             000000018000e024 f   common-kernel64:Memory.obj
 0001:0000d058       ??3@YAXPEAX@Z              000000018000e058 f   common-kernel64:Memory.obj
 0001:0000d06c       ??_U@YAPEAX_K@Z            000000018000e06c f   common-kernel64:Memory.obj
 0001:0000d080       ??_V@YAXPEAX@Z             000000018000e080 f   common-kernel64:Memory.obj
 0001:0000d094       ?HeapDeinitialize@@YAXXZ   000000018000e094 f   common-kernel64:Memory.obj
 0001:0000d0b8       ?HeapInitialize@@YA_NXZ    000000018000e0b8 f   common-kernel64:Memory.obj
 0001:0000d0ec       ?xf_calloc@@YAPEAX_K0PEBDH@Z 000000018000e0ec f   common-kernel64:Memory.obj
 0001:0000d17c       ?xf_free@@YAXPEAXPEBDH@Z   000000018000e17c f   common-kernel64:Memory.obj
 0001:0000d1b8       ?xf_malloc@@YAPEAX_KPEBDH@Z 000000018000e1b8 f   common-kernel64:Memory.obj
 0001:0000d240       ?xf_realloc@@YAPEAXPEAX_KPEBDH@Z 000000018000e240 f   common-kernel64:Memory.obj
 0001:0000d2f4       ?xf_set_tag@@YAXPEAXPEBDH_N@Z 000000018000e2f4 f   common-kernel64:Memory.obj
 0001:0000d39c       ?xf_validate@@YA_NPEAX@Z   000000018000e39c f   common-kernel64:Memory.obj
 0001:0000d3c4       ?msprintf@@YAPEB_WPEA_W_KPEB_WZZ 000000018000e3c4 f   common-kernel64:MStrSafe.obj
 0001:0000d810       ?CommonShutdown@@YAXXZ     000000018000e810 f   common-kernel64:Common.obj
 0001:0000d820       ??_GMNullDesc@@QEAAPEAXI@Z 000000018000e820 f i common-kernel64:MSecurity.obj
 0001:0000d898       ?LoadAdvApi@MNullDesc@@IEAAHXZ 000000018000e898 f i common-kernel64:MSecurity.obj
 0001:0000da50       ?LocalSecurity@@YAPEAU_SECURITY_ATTRIBUTES@@XZ 000000018000ea50 f   common-kernel64:MSecurity.obj
 0001:0000daac       ?LocalSecurity@MNullDesc@@QEAAPEAU_SECURITY_ATTRIBUTES@@XZ 000000018000eaac f i common-kernel64:MSecurity.obj
 0001:0000dc28       ?ShutdownSecurity@@YAXXZ   000000018000ec28 f   common-kernel64:MSecurity.obj
 0001:0000dc50       ?ExecuteCmd@@YAPEAUCESERVER_REQ@@PEB_WPEAU1@KPEAUHWND__@@HKH@Z 000000018000ec50 f   common-kernel64:ConEmuCheck.obj
 0001:0000de50       ?ExecuteFreeResult@@YAXAEAPEAUCESERVER_REQ@@@Z 000000018000ee50 f   common-kernel64:ConEmuCheck.obj
 0001:0000de7c       ?ExecuteGuiCmd@@YAPEAUCESERVER_REQ@@PEAUHWND__@@PEAU1@0H@Z 000000018000ee7c f   common-kernel64:ConEmuCheck.obj
 0001:0000df3c       ?ExecuteNewCmd@@YAPEAUCESERVER_REQ@@K_K@Z 000000018000ef3c f   common-kernel64:ConEmuCheck.obj
 0001:0000dfac       ?ExecuteOpenPipe@@YAPEAXPEB_WAEAY0CAI@_W0KKHPEAXH@Z 000000018000efac f   common-kernel64:ConEmuCheck.obj
 0001:0000e15c       ?ExecutePrepareCmd@@YAXPEAUCESERVER_REQ@@K_K@Z 000000018000f15c f   common-kernel64:ConEmuCheck.obj
 0001:0000e198       ?ExecutePrepareCmd@@YAXPEAUCESERVER_REQ_HDR@@K_K@Z 000000018000f198 f   common-kernel64:ConEmuCheck.obj
 0001:0000e208       ?ModuleName@@YAPEB_WPEB_W@Z 000000018000f208 f   common-kernel64:ConEmuCheck.obj
 0001:0000e2cc       ??1?$MToolHelp@UtagPROCESSENTRY32W@@$1?Process32FirstW@@YAHPEAXPEAU1@@Z$1?Process32NextW@@YAH01@Z@@UEAA@XZ 000000018000f2cc f i common-kernel64:MProcess.obj
 0001:0000e370       ??_GMToolHelpProcess@@UEAAPEAXI@Z 000000018000f370 f i common-kernel64:MProcess.obj
 0001:0000e370       ??_E?$MToolHelp@UtagPROCESSENTRY32W@@$1?Process32FirstW@@YAHPEAXPEAU1@@Z$1?Process32NextW@@YAH01@Z@@UEAAPEAXI@Z 000000018000f370 f i common-kernel64:MProcess.obj
 0001:0000e370       ??_G?$MToolHelp@UtagPROCESSENTRY32W@@$1?Process32FirstW@@YAHPEAXPEAU1@@Z$1?Process32NextW@@YAH01@Z@@UEAAPEAXI@Z 000000018000f370 f i common-kernel64:MProcess.obj
 0001:0000e370       ??_EMToolHelpProcess@@UEAAPEAXI@Z 000000018000f370 f i common-kernel64:MProcess.obj
 0001:0000e3a4       ?Find@?$MToolHelp@UtagPROCESSENTRY32W@@$1?Process32FirstW@@YAHPEAXPEAU1@@Z$1?Process32NextW@@YAH01@Z@@QEAA_NP6A_NPEAUtagPROCESSENTRY32W@@_J@Z10@Z 000000018000f3a4 f i common-kernel64:MProcess.obj
 0001:0000e478       ?Open@?$MToolHelp@UtagPROCESSENTRY32W@@$1?Process32FirstW@@YAHPEAXPEAU1@@Z$1?Process32NextW@@YAH01@Z@@QEAA_NXZ 000000018000f478 f i common-kernel64:MProcess.obj
 0001:0000e4fc       ?addsize@?$MArray@UtagPROCESSENTRY32W@@@@QEAAX_J@Z 000000018000f4fc f i common-kernel64:MProcess.obj
 0001:0000e5bc       ?getNext@?$MToolHelp@UtagPROCESSENTRY32W@@$1?Process32FirstW@@YAHPEAXPEAU1@@Z$1?Process32NextW@@YAH01@Z@@IEAA_NXZ 000000018000f5bc f i common-kernel64:MProcess.obj
 0001:0000e65c       ?isTerminalMode@@YA_NXZ    000000018000f65c f   common-kernel64:MProcess.obj
 0001:0000e7e0       ?push_back@?$MArray@UtagPROCESSENTRY32W@@@@QEAA_JAEBUtagPROCESSENTRY32W@@@Z 000000018000f7e0 f i common-kernel64:MProcess.obj
 0001:0000e854       ?Init@HkFunc@@QEAA_NPEB_WPEAUHINSTANCE__@@@Z 000000018000f854 f   common-kernel64:HkFunc.obj
 0001:0000e8f4       ??0MSection@@QEAA@XZ       000000018000f8f4 f   common-kernel64:MSection.obj
 0001:0000e97c       ??0MSectionLock@@QEAA@XZ   000000018000f97c f   common-kernel64:MSection.obj
 0001:0000e98c       ??1MSection@@QEAA@XZ       000000018000f98c f   common-kernel64:MSection.obj
 0001:0000ea00       ??1MSectionLock@@QEAA@XZ   000000018000fa00 f   common-kernel64:MSection.obj
 0001:0000ea24       ?AddRef@MSection@@IEAAXK@Z 000000018000fa24 f   common-kernel64:MSection.obj
 0001:0000eab8       ?Lock@MSection@@IEAAHHK@Z  000000018000fab8 f   common-kernel64:MSection.obj
 0001:0000ebb8       ?Lock@MSectionLock@@QEAAHPEAVMSection@@HK@Z 000000018000fbb8 f   common-kernel64:MSection.obj
 0001:0000ec0c       ?MyEnterCriticalSection@MSection@@IEAA_NK@Z 000000018000fc0c f   common-kernel64:MSection.obj
 0001:0000ed3c       ?ReleaseRef@MSection@@IEAAHK@Z 000000018000fd3c f   common-kernel64:MSection.obj
 0001:0000ede0       ?Unlock@MSection@@IEAAXH@Z 000000018000fde0 f   common-kernel64:MSection.obj
 0001:0000ee38       ?Unlock@MSectionLock@@QEAAXXZ 000000018000fe38 f   common-kernel64:MSection.obj
 0001:0000ee64       ?WaitUnlocked@MSection@@IEAAXKK@Z 000000018000fe64 f   common-kernel64:MSection.obj
 0001:0000eef8       ?SetThreadName@@YAXKPEAD@Z 000000018000fef8 f   common-kernel64:WThreads.obj
 0001:0000ef30       ?apiCreateThread@@YAPEAXP6AKPEAX@Z0PEAKPEBDH@Z 000000018000ff30 f   common-kernel64:WThreads.obj
 0001:0000f080       ?apiTerminateThreadEx@@YAHPEAXKPEBDH@Z 0000000180010080 f   common-kernel64:WThreads.obj
 0001:0000f188       ?apiThreadHelper@@YAKPEAX@Z 0000000180010188 f   common-kernel64:WThreads.obj
 0001:0000f394       ?ExpandEnvStr@@YAPEA_WPEB_W@Z 0000000180010394 f   common-kernel64:WObjects.obj
 0001:0000f45c       ?FileExists@@YA_NPEB_WPEAK@Z 000000018001045c f   common-kernel64:WObjects.obj
 0001:0000f5e8       ?GetEnvVar@@YAPEA_WPEB_W@Z 00000001800105e8 f   common-kernel64:WObjects.obj
 0001:0000f6b8       ?IsWindows64@@YA_NXZ       00000001800106b8 f   common-kernel64:WObjects.obj
 0001:0000f6dc       ?StringCchCopyNW@@YAJPEA_W_KPEB_W1@Z 00000001800106dc f i common-kernel64:WObjects.obj
 0001:0000f764       ?PointToExt@@YAPEB_WPEB_W@Z 0000000180010764 f   common-kernel64:CmdLine.obj
 0001:0000f788       ?PointToName@@YAPEB_WPEB_W@Z 0000000180010788 f   common-kernel64:CmdLine.obj
 0001:0000f7e4       ?Unquote@@YAPEB_WPEA_W_N@Z 00000001800107e4 f   common-kernel64:CmdLine.obj
 0001:0000f84c       ?lstrdup@@YAPEA_WPEB_W_K@Z 000000018001084c f   common-kernel64:MStrDup.obj
 0001:0000f8cc       ?lstrmerge@@YAPEA_WPEB_W00000000@Z 00000001800108cc f   common-kernel64:MStrDup.obj
 0001:0000fa18       ??0MSectionLockSimple@@QEAA@XZ 0000000180010a18 f   common-kernel64:MSectionSimple.obj
 0001:0000fa24       ??0MSectionSimple@@QEAA@_N@Z 0000000180010a24 f   common-kernel64:MSectionSimple.obj
 0001:0000fa5c       ??1MSectionLockSimple@@QEAA@XZ 0000000180010a5c f   common-kernel64:MSectionSimple.obj
 0001:0000fa70       ??1MSectionSimple@@QEAA@XZ 0000000180010a70 f   common-kernel64:MSectionSimple.obj
 0001:0000fa70       ?Close@MSectionSimple@@QEAAXXZ 0000000180010a70 f   common-kernel64:MSectionSimple.obj
 0001:0000fa90       ?Enter@MSectionSimple@@QEAAXXZ 0000000180010a90 f   common-kernel64:MSectionSimple.obj
 0001:0000fa98       ?Init@MSectionSimple@@QEAAXXZ 0000000180010a98 f   common-kernel64:MSectionSimple.obj
 0001:0000fab8       ?Leave@MSectionSimple@@QEAAXXZ 0000000180010ab8 f   common-kernel64:MSectionSimple.obj
 0001:0000fac0       ?Lock@MSectionLockSimple@@QEAAHPEAUMSectionSimple@@K@Z 0000000180010ac0 f   common-kernel64:MSectionSimple.obj
 0001:0000fb58       ?RecreateAndLock@MSectionSimple@@QEAA_NXZ 0000000180010b58 f   common-kernel64:MSectionSimple.obj
 0001:0000fbc8       ?TryEnter@MSectionSimple@@QEAA_NXZ 0000000180010bc8 f   common-kernel64:MSectionSimple.obj
 0001:0000fbf0       ?Unlock@MSectionLockSimple@@QEAAXXZ 0000000180010bf0 f   common-kernel64:MSectionSimple.obj
 0001:0000fc18       ??0CEStr@@QEAA@PEB_W00000000@Z 0000000180010c18 f   common-kernel64:CEStr.obj
 0001:0000fcc0       ??1CEStr@@QEAA@XZ          0000000180010cc0 f   common-kernel64:CEStr.obj
 0001:0000fd1c       ??BCEStr@@QEBAPEB_WXZ      0000000180010d1c f   common-kernel64:CEStr.obj
 0001:0000fd20       ?AttachInt@CEStr@@AEAAPEB_WAEAPEA_W@Z 0000000180010d20 f   common-kernel64:CEStr.obj
 0001:0000fdb4       ?Empty@CEStr@@QEAAXXZ      0000000180010db4 f   common-kernel64:CEStr.obj
 0001:0000fdd4       ?GetBuffer@CEStr@@QEAAPEA_W_J@Z 0000000180010dd4 f   common-kernel64:CEStr.obj
 0001:0000fea4       ?GetLen@CEStr@@QEBA_JXZ    0000000180010ea4 f   common-kernel64:CEStr.obj
 0001:0000fecc       ?GetMaxCount@CEStr@@QEAA_JXZ 0000000180010ecc f   common-kernel64:CEStr.obj
 0001:0000fef8       ?SavePathVar@CEStr@@QEAAXPEB_W@Z 0000000180010ef8 f   common-kernel64:CEStr.obj
 0001:0000ff30       ?Set@CEStr@@QEAAPEB_WPEB_W_J@Z 0000000180010f30 f   common-kernel64:CEStr.obj
 0001:00010024       ??0CRgnDetect@@QEAA@XZ     0000000180011024 f   common-user64:RgnDetect.obj
 0001:000100e4       ??1CRgnDetect@@QEAA@XZ     00000001800110e4 f   common-user64:RgnDetect.obj
 0001:00010174       ?DetectDialog@CRgnDetect@@IEAA_NPEA_WPEAUtag_CharAttr@@HHHHPEAH2@Z 0000000180011174 f   common-user64:RgnDetect.obj
 0001:0001051c       ?ExpandDialogFrame@CRgnDetect@@IEAA_NPEA_WPEAUtag_CharAttr@@HHAEAH2HH22@Z 000000018001151c f   common-user64:RgnDetect.obj
 0001:000107dc       ?FindByBackground@CRgnDetect@@IEAA_NPEA_WPEAUtag_CharAttr@@HHAEAH222AEA_N@Z 00000001800117dc f   common-user64:RgnDetect.obj
 0001:000108dc       ?FindDialog_Any@CRgnDetect@@IEAA_NPEA_WPEAUtag_CharAttr@@HHAEAH222AEA_N@Z 00000001800118dc f   common-user64:RgnDetect.obj
 0001:00010b8c       ?FindDialog_Inner@CRgnDetect@@IEAA_NPEA_WPEAUtag_CharAttr@@HHAEAH2@Z 0000000180011b8c f   common-user64:RgnDetect.obj
 0001:00010cd4       ?FindDialog_Left@CRgnDetect@@IEAA_NPEA_WPEAUtag_CharAttr@@HHAEAH222AEA_N@Z 0000000180011cd4 f   common-user64:RgnDetect.obj
 0001:00010ec4       ?FindDialog_Right@CRgnDetect@@IEAA_NPEA_WPEAUtag_CharAttr@@HHAEAH222AEA_N@Z 0000000180011ec4 f   common-user64:RgnDetect.obj
 0001:0001102c       ?FindDialog_TopLeft@CRgnDetect@@IEAA_NPEA_WPEAUtag_CharAttr@@HHAEAH222AEA_N@Z 000000018001202c f   common-user64:RgnDetect.obj
 0001:00011138       ?FindDialog_TopRight@CRgnDetect@@IEAA_NPEA_WPEAUtag_CharAttr@@HHAEAH222AEA_N@Z 0000000180012138 f   common-user64:RgnDetect.obj
 0001:00011250       ?FindFrameBottom_ByLeft@CRgnDetect@@IEAA_NPEA_WPEAUtag_CharAttr@@HHAEAH22@Z 0000000180012250 f   common-user64:RgnDetect.obj
 0001:000112e4       ?FindFrameBottom_ByRight@CRgnDetect@@IEAA_NPEA_WPEAUtag_CharAttr@@HHAEAH22@Z 00000001800122e4 f   common-user64:RgnDetect.obj
 0001:00011398       ?FindFrameLeft_ByBottom@CRgnDetect@@IEAA_NPEA_WPEAUtag_CharAttr@@HHAEAH22@Z 0000000180012398 f   common-user64:RgnDetect.obj
 0001:00011468       ?FindFrameLeft_ByTop@CRgnDetect@@IEAA_NPEA_WPEAUtag_CharAttr@@HHAEAH22@Z 0000000180012468 f   common-user64:RgnDetect.obj
 0001:000115dc       ?FindFrameRight_ByBottom@CRgnDetect@@IEAA_NPEA_WPEAUtag_CharAttr@@HHAEAH22@Z 00000001800125dc f   common-user64:RgnDetect.obj
 0001:000116bc       ?FindFrameRight_ByTop@CRgnDetect@@IEAA_NPEA_WPEAUtag_CharAttr@@HHAEAH22@Z 00000001800126bc f   common-user64:RgnDetect.obj
 0001:000117e8       ?FindFrameTop_ByLeft@CRgnDetect@@IEAA_NPEA_WPEAUtag_CharAttr@@HHAEAH22@Z 00000001800127e8 f   common-user64:RgnDetect.obj
 0001:0001186c       ?FindFrameTop_ByRight@CRgnDetect@@IEAA_NPEA_WPEAUtag_CharAttr@@HHAEAH22@Z 000000018001286c f   common-user64:RgnDetect.obj
 0001:00011914       ?FindFrame_TopLeft@CRgnDetect@@IEAA_NPEA_WPEAUtag_CharAttr@@HHAEAH222@Z 0000000180012914 f   common-user64:RgnDetect.obj
 0001:00011a18       ?GetCharAttr@CRgnDetect@@QEAAHHHAEA_WAEAUtag_CharAttr@@@Z 0000000180012a18 f   common-user64:RgnDetect.obj
 0001:00011a98       ?GetDetectedDialogsPtr@CRgnDetect@@QEBAPEBUtag_DetectedDialog@@XZ 0000000180012a98 f   common-user64:RgnDetect.obj
 0001:00011aa0       ?GetFlags@CRgnDetect@@QEBAKXZ 0000000180012aa0 f   common-user64:RgnDetect.obj
 0001:00011aa8       ?InitializeSBI@CRgnDetect@@QEAAHPEBK@Z 0000000180012aa8 f   common-user64:RgnDetect.obj
 0001:00011ed4       ?MarkDialog@CRgnDetect@@IEAAHPEA_WPEAUtag_CharAttr@@HHHHHHI_NK@Z 0000000180012ed4 f   common-user64:RgnDetect.obj
 0001:000127f4       ?OnWindowSizeChanged@CRgnDetect@@QEAAXXZ 00000001800137f4 f   common-user64:RgnDetect.obj
 0001:000127fc       ?OnWriteConsoleOutput@CRgnDetect@@QEAAXPEBU_CHAR_INFO@@U_COORD@@1PEAU_SMALL_RECT@@PEBK@Z 00000001800137fc f   common-user64:RgnDetect.obj
 0001:00012a68       ?PrepareTransparent@CRgnDetect@@QEAAXPEBUCEFAR_INFO_MAPPING@@PEBK@Z 0000000180013a68 f   common-user64:RgnDetect.obj
 0001:00012b3c       ?PrepareTransparent@CRgnDetect@@QEAAXPEBUCEFAR_INFO_MAPPING@@PEBKPEBU_CONSOLE_SCREEN_BUFFER_INFO@@PEA_WPEAUtag_CharAttr@@HH@Z 0000000180013b3c f   common-user64:RgnDetect.obj
 0001:00013380       ?SetFarRect@CRgnDetect@@QEAAXPEAU_SMALL_RECT@@@Z 0000000180014380 f   common-user64:RgnDetect.obj
 0001:00013400       ?TextHeight@CRgnDetect@@QEAAHXZ 0000000180014400 f   common-user64:RgnDetect.obj
 0001:0001342c       ?TextWidth@CRgnDetect@@QEAAHXZ 000000018001442c f   common-user64:RgnDetect.obj
 0001:00013458       ?SearchAppPaths@@YA_NPEB_WAEAUCEStr@@_NPEAU1@@Z 0000000180014458 f   common-user64:WFiles.obj
 0001:00013898       ?apiShowWindow@@YA_NPEAUHWND__@@H@Z 0000000180014898 f   common-user64:WUser.obj
 0001:000138ac       ??3@YAXPEAX_K@Z            00000001800148ac f   LIBCMT:delete_scalar_size.obj
 0001:000138b4       __GSHandlerCheck           00000001800148b4 f   LIBCMT:_gshandler_.obj
 0001:000138d4       __GSHandlerCheckCommon     00000001800148d4 f   LIBCMT:_gshandler_.obj
 0001:00013930       __GSHandlerCheck_EH        0000000180014930 f   LIBCMT:gshandlereh.obj
 0001:000139c0       __security_check_cookie    00000001800149c0 f   LIBCMT:_amdsecgs_.obj
 0001:000139e4       ??_Etype_info@@UEAAPEAXI@Z 00000001800149e4 f i LIBCMT:std_type_info_static.obj
 0001:000139e4       ??_Gtype_info@@UEAAPEAXI@Z 00000001800149e4 f i LIBCMT:std_type_info_static.obj
 0001:00013d4c       _DllMainCRTStartup         0000000180014d4c f   LIBCMT:dll_dllmain.obj
 0001:00013d8c       __raise_securityfailure    0000000180014d8c f   LIBCMT:gs_report.obj
 0001:00013dc0       __report_gsfailure         0000000180014dc0 f   LIBCMT:gs_report.obj
 0001:00013e94       __report_rangecheckfailure 0000000180014e94 f   LIBCMT:gs_report.obj
 0001:00013ea8       __report_securityfailure   0000000180014ea8 f   LIBCMT:gs_report.obj
 0001:00014028       __security_init_cookie     0000000180015028 f   LIBCMT:gs_support.obj
 0001:000140d4       ?__scrt_initialize_type_info@@YAXXZ 00000001800150d4 f   LIBCMT:tncleanup.obj
 0001:000140e4       ?__scrt_uninitialize_type_info@@YAXXZ 00000001800150e4 f   LIBCMT:tncleanup.obj
 0001:000140f0       __local_stdio_printf_options 00000001800150f0 f i LIBCMT:default_local_stdio_options.obj
 0001:000140f8       __local_stdio_scanf_options 00000001800150f8 f i LIBCMT:default_local_stdio_options.obj
 0001:00014100       __scrt_initialize_default_local_stdio_options 0000000180015100 f   LIBCMT:default_local_stdio_options.obj
 0001:0001411c       __scrt_acquire_startup_lock 000000018001511c f   LIBCMT:utility.obj
 0001:00014158       __scrt_dllmain_after_initialize_c 0000000180015158 f   LIBCMT:utility.obj
 0001:0001418c       __scrt_dllmain_before_initialize_c 000000018001518c f   LIBCMT:utility.obj
 0001:000141a4       __scrt_dllmain_crt_thread_attach 00000001800151a4 f   LIBCMT:utility.obj
 0001:000141cc       __scrt_dllmain_crt_thread_detach 00000001800151cc f   LIBCMT:utility.obj
 0001:000141e4       __scrt_dllmain_exception_filter 00000001800151e4 f   LIBCMT:utility.obj
 0001:00014248       __scrt_dllmain_uninitialize_c 0000000180015248 f   LIBCMT:utility.obj
 0001:00014278       __scrt_dllmain_uninitialize_critical 0000000180015278 f   LIBCMT:utility.obj
 0001:0001428c       __scrt_initialize_crt      000000018001528c f   LIBCMT:utility.obj
 0001:000142d8       __scrt_initialize_onexit_tables 00000001800152d8 f   LIBCMT:utility.obj
 0001:000143b8       __scrt_is_nonwritable_in_current_image 00000001800153b8 f   LIBCMT:utility.obj
 0001:00014454       __scrt_release_startup_lock 0000000180015454 f   LIBCMT:utility.obj
 0001:00014478       __scrt_uninitialize_crt    0000000180015478 f   LIBCMT:utility.obj
 0001:000144a4       __scrt_get_dyn_tls_init_callback 00000001800154a4 f   LIBCMT:dyn_tls_init.obj
 0001:000144ac       __crt_debugger_hook        00000001800154ac f   LIBCMT:utility_desktop.obj
 0001:000144b4       __scrt_fastfail            00000001800154b4 f   LIBCMT:utility_desktop.obj
 0001:00014600       _RTC_Initialize            0000000180015600 f   LIBCMT:_initsect_.obj
 0001:0001464c       _RTC_Terminate             000000018001564c f   LIBCMT:_initsect_.obj
 0001:00014698       _guard_check_icall         0000000180015698 f i LIBCMT:checkcfg.obj
 0001:000146a0       __isa_available_init       00000001800156a0 f   LIBCMT:_cpu_disp_.obj
 0001:0001485c       _get_startup_argv_mode     000000018001585c f   LIBCMT:argv_mode.obj
 0001:00014864       __scrt_is_ucrt_dll_in_use  0000000180015864 f   LIBCMT:ucrt_detection.obj
 0001:00014880       memmove                    0000000180015880 f   libvcruntime:memcpy.obj
 0001:00014880       memcpy                     0000000180015880 f   libvcruntime:memcpy.obj
 0001:00014cc8       wcsrchr                    0000000180015cc8 f   libvcruntime:wcsrchr.obj
 0001:00014d78       ?_ExecutionInCatch@@YAHPEAU_xDISPATCHER_CONTEXT@@PEBU_s_FuncInfo@@@Z 0000000180015d78 f   libvcruntime:risctrnsctrl.obj
 0001:00014dec       ?_GetEstablisherFrame@@YAPEA_KPEA_KPEAU_xDISPATCHER_CONTEXT@@PEBU_s_FuncInfo@@0@Z 0000000180015dec f   libvcruntime:risctrnsctrl.obj
 0001:00014eb8       ?_GetRangeOfTrysToCheck@@YAPEBU_s_TryBlockMapEntry@@PEA_KPEBU_s_FuncInfo@@HHPEAI2PEAU_xDISPATCHER_CONTEXT@@@Z 0000000180015eb8 f   libvcruntime:risctrnsctrl.obj
 0001:00014fe4       ?__FrameUnwindToEmptyState@@YAXPEA_KPEAU_xDISPATCHER_CONTEXT@@PEBU_s_FuncInfo@@@Z 0000000180015fe4 f   libvcruntime:risctrnsctrl.obj
 0001:00015078       _CallSETranslator          0000000180016078 f   libvcruntime:risctrnsctrl.obj
 0001:000150d0       _CreateFrameInfo           00000001800160d0 f   libvcruntime:risctrnsctrl.obj
 0001:0001510c       _FindAndUnlinkFrame        000000018001610c f   libvcruntime:risctrnsctrl.obj
 0001:00015164       _GetImageBase              0000000180016164 f   libvcruntime:risctrnsctrl.obj
 0001:00015178       _GetThrowImageBase         0000000180016178 f   libvcruntime:risctrnsctrl.obj
 0001:0001518c       _SetImageBase              000000018001618c f   libvcruntime:risctrnsctrl.obj
 0001:000151a4       _SetThrowImageBase         00000001800161a4 f   libvcruntime:risctrnsctrl.obj
 0001:000151bc       _UnwindNestedFrames        00000001800161bc f   libvcruntime:risctrnsctrl.obj
 0001:000152e0       __CxxFrameHandler3         00000001800162e0 f   libvcruntime:risctrnsctrl.obj
 0001:00015370       memcmp                     0000000180016370 f   libvcruntime:memcmp.obj
 0001:00015450       memset                     0000000180016450 f   libvcruntime:memset.obj
 0001:00015600       wcschr                     0000000180016600 f   libvcruntime:wcschr.obj
 0001:00015694       __C_specific_handler       0000000180016694 f   libvcruntime:_riscchandler_.obj
 0001:00015890       strrchr                    0000000180016890 f   libvcruntime:strrchr.obj
 0001:000159d0       strchr                     00000001800169d0 f   libvcruntime:strchr.obj
 0001:00015a70       memchr                     0000000180016a70 f   libvcruntime:memchr.obj
 0001:00015ae0       __std_type_info_compare    0000000180016ae0 f   libvcruntime:std_type_info.obj
 0001:00015b08       __std_type_info_destroy_list 0000000180016b08 f   libvcruntime:std_type_info.obj
 0001:00015b34       __vcrt_initialize          0000000180016b34 f   libvcruntime:initialization.obj
 0001:00015b68       __vcrt_thread_attach       0000000180016b68 f   libvcruntime:initialization.obj
 0001:00015b7c       __vcrt_thread_detach       0000000180016b7c f   libvcruntime:initialization.obj
 0001:00015b90       __vcrt_uninitialize        0000000180016b90 f   libvcruntime:initialization.obj
 0001:00015bb0       __vcrt_uninitialize_critical 0000000180016bb0 f   libvcruntime:initialization.obj
 0001:00015bc0       __vcrt_freefls             0000000180016bc0 f   libvcruntime:per_thread_data.obj
 0001:00015be0       __vcrt_freeptd             0000000180016be0 f   libvcruntime:per_thread_data.obj
 0001:00015c30       __vcrt_getptd              0000000180016c30 f   libvcruntime:per_thread_data.obj
 0001:00015c4c       __vcrt_getptd_noexit       0000000180016c4c f   libvcruntime:per_thread_data.obj
 0001:00015d04       __vcrt_initialize_ptd      0000000180016d04 f   libvcruntime:per_thread_data.obj
 0001:00015d44       __vcrt_uninitialize_ptd    0000000180016d44 f   libvcruntime:per_thread_data.obj
 0001:00015d68       ?__GetCurrentState@@YAHPEA_KPEAU_xDISPATCHER_CONTEXT@@PEBU_s_FuncInfo@@@Z 0000000180016d68 f   libvcruntime:riscehstate.obj
 0001:00015d90       ?__GetUnwindTryBlock@@YAHPEA_KPEAU_xDISPATCHER_CONTEXT@@PEBU_s_FuncInfo@@@Z 0000000180016d90 f   libvcruntime:riscehstate.obj
 0001:00015dbc       ?__SetState@@YAXPEA_KPEAU_xDISPATCHER_CONTEXT@@PEBU_s_FuncInfo@@H@Z 0000000180016dbc f   libvcruntime:riscehstate.obj
 0001:00015dc8       ?__SetUnwindTryBlock@@YAXPEA_KPEAU_xDISPATCHER_CONTEXT@@PEBU_s_FuncInfo@@H@Z 0000000180016dc8 f   libvcruntime:riscehstate.obj
 0001:00015e04       ?__StateFromControlPc@@YAHPEBU_s_FuncInfo@@PEAU_xDISPATCHER_CONTEXT@@@Z 0000000180016e04 f   libvcruntime:riscehstate.obj
 0001:00015e0c       ?__StateFromIp@@YAHPEBU_s_FuncInfo@@PEAU_xDISPATCHER_CONTEXT@@_K@Z 0000000180016e0c f   libvcruntime:riscehstate.obj
 0001:00015e78       ??0bad_exception@std@@QEAA@AEBV01@@Z 0000000180016e78 f i libvcruntime:frame.obj
 0001:00015eb8       ??0bad_exception@std@@QEAA@XZ 0000000180016eb8 f i libvcruntime:frame.obj
 0001:00015ed8       ??0exception@std@@QEAA@AEBV01@@Z 0000000180016ed8 f i libvcruntime:frame.obj
 0001:00015f10       ??1bad_exception@std@@UEAA@XZ 0000000180016f10 f i libvcruntime:frame.obj
 0001:00015f24       ??_Ebad_exception@std@@UEAAPEAXI@Z 0000000180016f24 f i libvcruntime:frame.obj
 0001:00015f24       ??_Gbad_exception@std@@UEAAPEAXI@Z 0000000180016f24 f i libvcruntime:frame.obj
 0001:00015f24       ??_Gexception@std@@UEAAPEAXI@Z 0000000180016f24 f i libvcruntime:frame.obj
 0001:00015f24       ??_Eexception@std@@UEAAPEAXI@Z 0000000180016f24 f i libvcruntime:frame.obj
 0001:000168c4       ?_CallMemberFunction1@@YAXQEAX00@Z 00000001800178c4 f i libvcruntime:frame.obj
 0001:000168d0       ?_CallMemberFunction2@@YAXQEAX00H@Z 00000001800178d0 f i libvcruntime:frame.obj
 0001:000168e0       ?what@exception@std@@UEBAPEBDXZ 00000001800178e0 f i libvcruntime:frame.obj
 0001:000168f4       __BuildCatchObject         00000001800178f4 f   libvcruntime:frame.obj
 0001:000169b8       __BuildCatchObjectHelper   00000001800179b8 f   libvcruntime:frame.obj
 0001:00016b98       __CxxCallCatchBlock        0000000180017b98 f   libvcruntime:frame.obj
 0001:00016d84       __FrameUnwindToState       0000000180017d84 f   libvcruntime:frame.obj
 0001:00016f18       __InternalCxxFrameHandler  0000000180017f18 f   libvcruntime:frame.obj
 0001:0001716c       __TypeMatch                000000018001816c f   libvcruntime:frame.obj
 0001:000172c0       _local_unwind              00000001800182c0 f   libvcruntime:_jmpuwind_.obj
 0001:000172f0       _NLG_Notify                00000001800182f0 f   libvcruntime:_jmpuwind_.obj
 0001:00017310       __NLG_Dispatch2            0000000180018310 f   libvcruntime:_jmpuwind_.obj
 0001:00017320       __NLG_Return2              0000000180018320 f   libvcruntime:_jmpuwind_.obj
 0001:00017324       __except_validate_context_record 0000000180018324 f   libvcruntime:jbcxrval.obj
 0001:0001735c       __vcrt_initialize_locks    000000018001835c f   libvcruntime:locks.obj
 0001:000173a4       __vcrt_uninitialize_locks  00000001800183a4 f   libvcruntime:locks.obj
 0001:000175b4       __vcrt_FlsAlloc            00000001800185b4 f   libvcruntime:winapi_downlevel.obj
 0001:00017608       __vcrt_FlsFree             0000000180018608 f   libvcruntime:winapi_downlevel.obj
 0001:0001765c       __vcrt_FlsGetValue         000000018001865c f   libvcruntime:winapi_downlevel.obj
 0001:000176b0       __vcrt_FlsSetValue         00000001800186b0 f   libvcruntime:winapi_downlevel.obj
 0001:00017718       __vcrt_InitializeCriticalSectionEx 0000000180018718 f   libvcruntime:winapi_downlevel.obj
 0001:00017790       __vcrt_initialize_winapi_thunks 0000000180018790 f   libvcruntime:winapi_downlevel.obj
 0001:000177d4       __vcrt_uninitialize_winapi_thunks 00000001800187d4 f   libvcruntime:winapi_downlevel.obj
 0001:00017814       __vcrt_initialize_pure_virtual_call_handler 0000000180018814 f   libvcruntime:purevirt_data.obj
 0001:00017850       _CallSettingFrame          0000000180018850 f   libvcruntime:handlers.obj
 0001:00017890       __DestructExceptionObject  0000000180018890 f   libvcruntime:ehhelpers.obj
 0001:00017918       ?_CallMemberFunction0@@YAXQEAX0@Z 0000000180018918 f i libvcruntime:ehhelpers.obj
 0001:0001791c       _IsExceptionObjectToBeDestroyed 000000018001891c f   libvcruntime:ehhelpers.obj
 0001:0001794c       __AdjustPointer            000000018001894c f   libvcruntime:ehhelpers.obj
 0001:00017970       __FrameUnwindFilter        0000000180018970 f   libvcruntime:ehhelpers.obj
 0001:000179bc       __std_exception_copy       00000001800189bc f   libvcruntime:std_exception.obj
 0001:00017a4c       __std_exception_destroy    0000000180018a4c f   libvcruntime:std_exception.obj
 0001:00017a74       _CxxThrowException         0000000180018a74 f   libvcruntime:throw.obj
 0001:00017b4c       wcsncmp                    0000000180018b4c f   libucrt:wcsncmp.obj
 0001:00017b78       ??0_LocaleUpdate@@QEAA@QEAU__crt_locale_pointers@@@Z 0000000180018b78 f i libucrt:strtox.obj
 0001:00017c08       wcspbrk                    0000000180018c08 f   libucrt:wcspbrk.obj
 0001:00017c40       _initterm                  0000000180018c40 f   libucrt:initterm.obj
 0001:00017cb8       _initterm_e                0000000180018cb8 f   libucrt:initterm.obj
 0001:00017d04       _seh_filter_dll            0000000180018d04 f   libucrt:exception_filter.obj
 0001:00017d18       _seh_filter_exe            0000000180018d18 f   libucrt:exception_filter.obj
 0001:000180d8       __acrt_initialize_thread_local_exit_callback 00000001800190d8 f   libucrt:exit.obj
 0001:000180e0       _cexit                     00000001800190e0 f   libucrt:exit.obj
 0001:000180f0       _exit                      00000001800190f0 f   libucrt:exit.obj
 0001:000180fc       _is_c_termination_complete 00000001800190fc f   libucrt:exit.obj
 0001:000182c0       __acrt_allocate_buffer_for_argv 00000001800192c0 f   libucrt:argv_parsing.obj
 0001:00018324       _configure_narrow_argv     0000000180019324 f   libucrt:argv_parsing.obj
 0001:00018680       __dcrt_uninitialize_environments_nolock 0000000180019680 f   libucrt:environment_initialization.obj
 0001:000186b8       _initialize_narrow_environment 00000001800196b8 f   libucrt:environment_initialization.obj
 0001:000186c0       ??$?RV<lambda_e24bbb7b643b32fcea6fa61b31d4c984>@@AEAV<lambda_275893d493268fdec8709772e3fcec0e>@@V<lambda_9d71df4d7cf3f480f8d633942495c3b0>@@@?$__crt_seh_guarded_call@H@@QEAAH$$QEAV<lambda_e24bbb7b643b32fcea6fa61b31d4c984>@@AEAV<lambda_275893d493268fdec8709772e3fcec0e>@@$$QEAV<lambda_9d71df4d7cf3f480f8d633942495c3b0>@@@Z 00000001800196c0 f i libucrt:onexit.obj
 0001:00018860       _execute_onexit_table      0000000180019860 f   libucrt:onexit.obj
 0001:0001889c       _initialize_onexit_table   000000018001989c f   libucrt:onexit.obj
 0001:00018924       ?CheckHighPriority@CImgLoader@@UEAA_NAEAPEBUIMAGE_CACHE_INFO@@@Z 0000000180019924 f   ImgCache.obj
 0001:00018924       ?CheckHighPriority@?$CQueueProcessor@PEAUIMAGE_CACHE_INFO@@@@MEAA_NAEBQEAUIMAGE_CACHE_INFO@@@Z 0000000180019924 f   ImgCache.obj
 0001:00018924       ?Filter@?$MToolHelp@UtagPROCESSENTRY32W@@$1?Process32FirstW@@YAHPEAXPEAU1@@Z$1?Process32NextW@@YAH01@Z@@MEAA_NPEAUtagPROCESSENTRY32W@@@Z 0000000180019924 f   common-kernel64:MProcess.obj
 0001:00018924       __acrt_uninitialize_command_line 0000000180019924 f   libucrt:argv_data.obj
 0001:00018a14       __acrt_initialize          0000000180019a14 f   libucrt:initialization.obj
 0001:00018a28       __acrt_thread_attach       0000000180019a28 f   libucrt:initialization.obj
 0001:00018a3c       __acrt_thread_detach       0000000180019a3c f   libucrt:initialization.obj
 0001:00018a4c       __acrt_uninitialize        0000000180019a4c f   libucrt:initialization.obj
 0001:00018a60       __acrt_uninitialize_critical 0000000180019a60 f   libucrt:initialization.obj
 0001:00018a70       terminate                  0000000180019a70 f   libucrt:terminate.obj
 0001:00018a98       _free_base                 0000000180019a98 f   libucrt:free_base.obj
 0001:00018ad8       _malloc_base               0000000180019ad8 f   libucrt:malloc_base.obj
 0001:00018b38       strcpy_s                   0000000180019b38 f   libucrt:strcpy_s.obj
 0001:00018b98       abort                      0000000180019b98 f   libucrt:abort.obj
 0001:00018bf0       _calloc_base               0000000180019bf0 f   libucrt:calloc_base.obj
 0001:00018c68       free                       0000000180019c68 f   libucrt:free.obj
 0001:00018c70       malloc                     0000000180019c70 f   libucrt:malloc.obj
 0001:00018c78       __acrt_call_reportfault    0000000180019c78 f   libucrt:invalid_parameter.obj
 0001:00018dd4       __acrt_initialize_invalid_parameter_handler 0000000180019dd4 f   libucrt:invalid_parameter.obj
 0001:00018ddc       _invalid_parameter         0000000180019ddc f   libucrt:invalid_parameter.obj
 0001:00018e84       _invalid_parameter_noinfo  0000000180019e84 f   libucrt:invalid_parameter.obj
 0001:00018ea4       _invoke_watson             0000000180019ea4 f   libucrt:invalid_parameter.obj
 0001:00018eec       __acrt_errno_from_os_error 0000000180019eec f   libucrt:errno.obj
 0001:00018f34       __acrt_errno_map_os_error  0000000180019f34 f   libucrt:errno.obj
 0001:00018f84       __doserrno                 0000000180019f84 f   libucrt:errno.obj
 0001:00018fa4       _errno                     0000000180019fa4 f   libucrt:errno.obj
 0001:00018fc4       __pctype_func              0000000180019fc4 f   libucrt:ctype.obj
 0001:00018ff4       ??$?RV<lambda_46352004c1216016012b18bd6f87e700>@@AEAV<lambda_3bd07e1a1191394380780325891bf33f>@@V<lambda_334532d3f185bcaa59b5be82d7d22bff>@@@?$__crt_seh_guarded_call@X@@QEAAX$$QEAV<lambda_46352004c1216016012b18bd6f87e700>@@AEAV<lambda_3bd07e1a1191394380780325891bf33f>@@$$QEAV<lambda_334532d3f185bcaa59b5be82d7d22bff>@@@Z 0000000180019ff4 f i libucrt:per_thread_data.obj
 0001:00019054       ??$?RV<lambda_5e887d1dcbef67a5eb4283622ba103bf>@@AEAV<lambda_4466841279450cc726390878d4a41900>@@V<lambda_341c25c0346d94847f1f3c463c57e077>@@@?$__crt_seh_guarded_call@X@@QEAAX$$QEAV<lambda_5e887d1dcbef67a5eb4283622ba103bf>@@AEAV<lambda_4466841279450cc726390878d4a41900>@@$$QEAV<lambda_341c25c0346d94847f1f3c463c57e077>@@@Z 000000018001a054 f i libucrt:per_thread_data.obj
 0001:0001909c       ??$?RV<lambda_72d1df2b273a38828b1ce30cbf4cdab5>@@AEAV<lambda_876a65b173b8412d3a47c70a915b0cf4>@@V<lambda_41932305e351933ebe8f8be3ed8bb5dc>@@@?$__crt_seh_guarded_call@X@@QEAAX$$QEAV<lambda_72d1df2b273a38828b1ce30cbf4cdab5>@@AEAV<lambda_876a65b173b8412d3a47c70a915b0cf4>@@$$QEAV<lambda_41932305e351933ebe8f8be3ed8bb5dc>@@@Z 000000018001a09c f i libucrt:per_thread_data.obj
 0001:000190dc       ??$?RV<lambda_fb3a7dec4e47f37f22dae91bb15c9095>@@AEAV<lambda_698284760c8add0bfb0756c19673e34b>@@V<lambda_dfb8eca1e75fef3034a8fb18dd509707>@@@?$__crt_seh_guarded_call@X@@QEAAX$$QEAV<lambda_fb3a7dec4e47f37f22dae91bb15c9095>@@AEAV<lambda_698284760c8add0bfb0756c19673e34b>@@$$QEAV<lambda_dfb8eca1e75fef3034a8fb18dd509707>@@@Z 000000018001a0dc f i libucrt:per_thread_data.obj
 0001:0001936c       __acrt_freeptd             000000018001a36c f   libucrt:per_thread_data.obj
 0001:000193b0       __acrt_getptd              000000018001a3b0 f   libucrt:per_thread_data.obj
 0001:00019444       __acrt_getptd_noexit       000000018001a444 f   libucrt:per_thread_data.obj
 0001:000194e4       __acrt_initialize_ptd      000000018001a4e4 f   libucrt:per_thread_data.obj
 0001:00019520       __acrt_uninitialize_ptd    000000018001a520 f   libucrt:per_thread_data.obj
 0001:00019544       __acrt_update_locale_info  000000018001a544 f   libucrt:locale_update.obj
 0001:00019578       __acrt_update_multibyte_info 000000018001a578 f   libucrt:locale_update.obj
 0001:000195ac       __acrt_set_locale_changed  000000018001a5ac f   libucrt:wsetlocale.obj
 0001:000195b8       __acrt_uninitialize_locale 000000018001a5b8 f   libucrt:wsetlocale.obj
 0001:00019600       __acrt_initialize_locks    000000018001a600 f   libucrt:locks.obj
 0001:00019648       __acrt_lock                000000018001a648 f   libucrt:locks.obj
 0001:00019664       __acrt_uninitialize_locks  000000018001a664 f   libucrt:locks.obj
 0001:0001969c       __acrt_unlock              000000018001a69c f   libucrt:locks.obj
 0001:00019858       __acrt_FlsAlloc            000000018001a858 f   libucrt:winapi_thunks.obj
 0001:000198b0       __acrt_FlsFree             000000018001a8b0 f   libucrt:winapi_thunks.obj
 0001:00019908       __acrt_FlsGetValue         000000018001a908 f   libucrt:winapi_thunks.obj
 0001:00019960       __acrt_FlsSetValue         000000018001a960 f   libucrt:winapi_thunks.obj
 0001:000199c8       __acrt_InitializeCriticalSectionEx 000000018001a9c8 f   libucrt:winapi_thunks.obj
 0001:00019a40       __acrt_LCMapStringEx       000000018001aa40 f   libucrt:winapi_thunks.obj
 0001:00019b30       __acrt_LocaleNameToLCID    000000018001ab30 f   libucrt:winapi_thunks.obj
 0001:00019b98       __acrt_initialize_winapi_thunks 000000018001ab98 f   libucrt:winapi_thunks.obj
 0001:00019bd0       __acrt_is_packaged_app     000000018001abd0 f   libucrt:winapi_thunks.obj
 0001:00019c58       __acrt_uninitialize_winapi_thunks 000000018001ac58 f   libucrt:winapi_thunks.obj
 0001:0001a178       ?expand_if_necessary@?$argument_list@D@?A0xca0879c4@@AEAAHXZ 000000018001b178 f i libucrt:argv_wildcards.obj
 0001:0001a240       __acrt_expand_narrow_argv_wildcards 000000018001b240 f   libucrt:argv_wildcards.obj
 0001:0001a248       ??$?RV<lambda_99476a1ad63dd22509b5d3e65b0ffc95>@@AEAV<lambda_ad1ced32f4ac17aa236e5ef05d6b3b7c>@@V<lambda_f7424dd8d45958661754dc4f2697e9c3>@@@?$__crt_seh_guarded_call@X@@QEAAX$$QEAV<lambda_99476a1ad63dd22509b5d3e65b0ffc95>@@AEAV<lambda_ad1ced32f4ac17aa236e5ef05d6b3b7c>@@$$QEAV<lambda_f7424dd8d45958661754dc4f2697e9c3>@@@Z 000000018001b248 f i libucrt:mbctype.obj
 0001:0001a944       __acrt_initialize_multibyte 000000018001b944 f   libucrt:mbctype.obj
 0001:0001a96c       __acrt_update_thread_multibyte_data 000000018001b96c f   libucrt:mbctype.obj
 0001:0001aa2c       _setmbcp_nolock            000000018001ba2c f   libucrt:mbctype.obj
 0001:0001ad4c       _ismbblead                 000000018001bd4c f   libucrt:ismbbyte.obj
 0001:0001ad60       __acrt_initialize_command_line 000000018001bd60 f   libucrt:argv_data.obj
 0001:0001ad88       __dcrt_get_narrow_environment_from_os 000000018001bd88 f   libucrt:get_environment_from_os.obj
 0001:0001ae8c       _recalloc                  000000018001be8c f   libucrt:recalloc.obj
 0001:0001ae94       _recalloc_base             000000018001be94 f   libucrt:recalloc.obj
 0001:0001af2c       __acrt_initialize_heap     000000018001bf2c f   libucrt:heap_handle.obj
 0001:0001af48       __acrt_uninitialize_heap   000000018001bf48 f   libucrt:heap_handle.obj
 0001:0001b13c       __acrt_initialize_lowio    000000018001c13c f   libucrt:ioinit.obj
 0001:0001b178       __acrt_uninitialize_lowio  000000018001c178 f   libucrt:ioinit.obj
 0001:0001b1b8       __acrt_execute_initializers 000000018001c1b8 f   libucrt:shared_initialization.obj
 0001:0001b24c       __acrt_execute_uninitializers 000000018001c24c f   libucrt:shared_initialization.obj
 0001:0001b29c       __acrt_initialize_new_handler 000000018001c29c f   libucrt:new_handler.obj
 0001:0001b2a4       _callnewh                  000000018001c2a4 f   libucrt:new_handler.obj
 0001:0001b2e4       _query_new_handler         000000018001c2e4 f   libucrt:new_handler.obj
 0001:0001b318       ??$?RV<lambda_c36588078e9f5dfd39652860aa6b3aaf>@@AEAV<lambda_ec61778202f4f5fc7e7711acc23c3bca>@@V<lambda_dc9d2797ccde5d239b4a0efae8ebd7db>@@@?$__crt_seh_guarded_call@P6AXH@Z@@QEAAP6AXH@Z$$QEAV<lambda_c36588078e9f5dfd39652860aa6b3aaf>@@AEAV<lambda_ec61778202f4f5fc7e7711acc23c3bca>@@$$QEAV<lambda_dc9d2797ccde5d239b4a0efae8ebd7db>@@@Z 000000018001c318 f i libucrt:signal.obj
 0001:0001b360       __acrt_get_sigabrt_handler 000000018001c360 f   libucrt:signal.obj
 0001:0001b390       __acrt_initialize_signal_handlers 000000018001c390 f   libucrt:signal.obj
 0001:0001b3b0       raise                      000000018001c3b0 f   libucrt:signal.obj
 0001:0001b64c       __acrt_has_user_matherr    000000018001c64c f   libucrt:matherr.obj
 0001:0001b66c       __acrt_initialize_user_matherr 000000018001c66c f   libucrt:matherr.obj
 0001:0001b674       __acrt_invoke_user_matherr 000000018001c674 f   libucrt:matherr.obj
 0001:0001b6bc       _query_new_mode            000000018001c6bc f   libucrt:new_mode.obj
 0001:0001b6c4       _mbtowc_l                  000000018001c6c4 f   libucrt:mbtowc.obj
 0001:0001b80c       mbtowc                     000000018001c80c f   libucrt:mbtowc.obj
 0001:0001b814       _fileno                    000000018001c814 f   libucrt:fileno.obj
 0001:0001b83c       __acrt_initialize_stdio    000000018001c83c f   libucrt:_file.obj
 0001:0001b95c       __acrt_uninitialize_stdio  000000018001c95c f   libucrt:_file.obj
 0001:0001b9b8       _lock_file                 000000018001c9b8 f   libucrt:_file.obj
 0001:0001b9c4       _unlock_file               000000018001c9c4 f   libucrt:_file.obj
 0001:0001b9d0       _isleadbyte_l              000000018001c9d0 f i libucrt:_wctype.obj
 0001:0001ba10       __acrt_GetStringTypeA      000000018001ca10 f   libucrt:getstringtypea.obj
 0001:0001bbc4       __acrt_add_locale_ref      000000018001cbc4 f   libucrt:locale_refcounting.obj
 0001:0001bc50       __acrt_free_locale         000000018001cc50 f   libucrt:locale_refcounting.obj
 0001:0001bdc8       __acrt_locale_add_lc_time_reference 000000018001cdc8 f   libucrt:locale_refcounting.obj
 0001:0001bdf0       __acrt_locale_free_lc_time_if_unreferenced 000000018001cdf0 f   libucrt:locale_refcounting.obj
 0001:0001be28       __acrt_locale_release_lc_time_reference 000000018001ce28 f   libucrt:locale_refcounting.obj
 0001:0001be50       __acrt_release_locale_ref  000000018001ce50 f   libucrt:locale_refcounting.obj
 0001:0001bef8       __acrt_update_thread_locale_data 000000018001cef8 f   libucrt:locale_refcounting.obj
 0001:0001bf68       _updatetlocinfoEx_nolock   000000018001cf68 f   libucrt:locale_refcounting.obj
 0001:0001bfd0       __acrt_locale_free_monetary 000000018001cfd0 f   libucrt:initmon.obj
 0001:0001c0dc       __acrt_locale_free_numeric 000000018001d0dc f   libucrt:initnum.obj
 0001:0001c1a0       __acrt_locale_free_time    000000018001d1a0 f   libucrt:inittime.obj
 0001:0001c370       __acrt_DownlevelLocaleNameToLCID 000000018001d370 f   libucrt:lcidtoname_downlevel.obj
 0001:0001c480       qsort                      000000018001d480 f   libucrt:qsort.obj
 0001:0001c7b4       strncpy_s                  000000018001d7b4 f   libucrt:strncpy_s.obj
 0001:0001c888       strpbrk                    000000018001d888 f   libucrt:strpbrk.obj
 0001:0001c928       _mbsdec                    000000018001d928 f   libucrt:mbsdec.obj
 0001:0001c930       _mbsdec_l                  000000018001d930 f   libucrt:mbsdec.obj
 0001:0001cd3c       __acrt_LCMapStringA        000000018001dd3c f   libucrt:lcmapstringa.obj
 0001:0001cdd4       _msize                     000000018001ddd4 f   libucrt:msize.obj
 0001:0001ce10       _realloc_base              000000018001de10 f   libucrt:realloc_base.obj
 0001:0001ce94       __acrt_lowio_create_handle_array 000000018001de94 f   libucrt:osfinfo.obj
 0001:0001cf2c       __acrt_lowio_destroy_handle_array 000000018001df2c f   libucrt:osfinfo.obj
 0001:0001cf7c       __acrt_lowio_ensure_fh_exists 000000018001df7c f   libucrt:osfinfo.obj
 0001:0001d034       __acrt_lowio_lock_fh       000000018001e034 f   libucrt:osfinfo.obj
 0001:0001d058       __acrt_lowio_unlock_fh     000000018001e058 f   libucrt:osfinfo.obj
 0001:0001d07c       _free_osfhnd               000000018001e07c f   libucrt:osfinfo.obj
 0001:0001d138       _get_osfhandle             000000018001e138 f   libucrt:osfinfo.obj
 0001:0001d1b0       _isatty                    000000018001e1b0 f   libucrt:isatty.obj
 0001:0001d210       __acrt_stdio_flush_nolock  000000018001e210 f   libucrt:fflush.obj
 0001:0001d288       _fflush_nolock             000000018001e288 f   libucrt:fflush.obj
 0001:0001d2d4       _flushall                  000000018001e2d4 f   libucrt:fflush.obj
 0001:0001d3c4       _fcloseall                 000000018001e3c4 f   libucrt:closeall.obj
 0001:0001d478       __acrt_stdio_free_buffer_nolock 000000018001e478 f   libucrt:_freebuf.obj
 0001:0001d4b8       __strncnt                  000000018001e4b8 f   libucrt:strncnt.obj
 0001:0001d4d0       _query_app_type            000000018001e4d0 f   libucrt:report_runtime_error.obj
 0001:0001d4d8       ??$?RV<lambda_b521505b218e5242e90febf6bfebc422>@@AEAV<lambda_6978c1fb23f02e42e1d9e99668cc68aa>@@V<lambda_314360699dd331753a4119843814e9a7>@@@?$__crt_seh_guarded_call@H@@QEAAH$$QEAV<lambda_b521505b218e5242e90febf6bfebc422>@@AEAV<lambda_6978c1fb23f02e42e1d9e99668cc68aa>@@$$QEAV<lambda_314360699dd331753a4119843814e9a7>@@@Z 000000018001e4d8 f i libucrt:commit.obj
 0001:0001d564       _commit                    000000018001e564 f   libucrt:commit.obj
 0001:0001db98       _write                     000000018001eb98 f   libucrt:write.obj
 0001:0001dc84       _write_nolock              000000018001ec84 f   libucrt:write.obj
 0001:0001df70       log10                      000000018001ef70 f   libucrt:log10.obj
 0001:0001e5b8       _lseeki64_nolock           000000018001f5b8 f   libucrt:lseek.obj
 0001:0001e5c0       _fclose_nolock             000000018001f5c0 f   libucrt:fclose.obj
 0001:0001e644       fclose                     000000018001f644 f   libucrt:fclose.obj
 0001:0001e6b0       _putwch_nolock             000000018001f6b0 f   libucrt:putwch.obj
 0001:0001e830       _handle_error              000000018001f830 f   libucrt:libm_error.obj
 0001:0001e960       __acrt_initialize_fma3     000000018001f960 f   libucrt:fma3_available.obj
 0001:0001e9d0       _log10_special             000000018001f9d0 f   libucrt:log_special.obj
 0001:0001ea88       ??$?RV<lambda_bfedae4ebbf01fab1bb6dcc6a9e276e0>@@AEAV<lambda_2fe9b910cf3cbf4a0ab98a02ba45b3ec>@@V<lambda_237c231691f317818eb88cc1d5d642d6>@@@?$__crt_seh_guarded_call@H@@QEAAH$$QEAV<lambda_bfedae4ebbf01fab1bb6dcc6a9e276e0>@@AEAV<lambda_2fe9b910cf3cbf4a0ab98a02ba45b3ec>@@$$QEAV<lambda_237c231691f317818eb88cc1d5d642d6>@@@Z 000000018001fa88 f i libucrt:close.obj
 0001:0001eafc       _close                     000000018001fafc f   libucrt:close.obj
 0001:0001eba0       _close_nolock              000000018001fba0 f   libucrt:close.obj
 0001:0001ec5c       ?__acrt_stdio_free_stream@@YAXV__crt_stdio_stream@@@Z 000000018001fc5c f   libucrt:stream.obj
 0001:0001eca0       __dcrt_lowio_initialize_console_output 000000018001fca0 f   libucrt:initcon.obj
 0001:0001ecdc       __dcrt_terminate_console_output 000000018001fcdc f   libucrt:initcon.obj
 0001:0001ed10       _get_fpsr                  000000018001fd10 f   libucrt:fpsr.obj
 0001:0001ed20       _set_fpsr                  000000018001fd20 f   libucrt:fpsr.obj
 0001:0001ed2a       _fclrf                     000000018001fd2a f   libucrt:fpsr.obj
 0001:0001ed3e       _frnd                      000000018001fd3e f   libucrt:fpsr.obj
 0001:0001ed60       _raise_exc                 000000018001fd60 f   libucrt:fpexcept.obj
 0001:0001ed88       _raise_exc_ex              000000018001fd88 f   libucrt:fpexcept.obj
 0001:0001f090       _set_errno_from_matherr    0000000180020090 f   libucrt:fpexcept.obj
 0001:0001f0c0       _clrfp                     00000001800200c0 f   libucrt:fpctrl.obj
 0001:0001f0e0       _ctrlfp                    00000001800200e0 f   libucrt:fpctrl.obj
 0001:0001f15c       _set_statfp                000000018002015c f   libucrt:fpctrl.obj
 0001:0001f17c       _statfp                    000000018002017c f   libucrt:fpctrl.obj
 0001:0001f18d       Process32FirstW            000000018002018d f   kernel32:KERNEL32.dll
 0001:0001f193       Process32NextW             0000000180020193 f   kernel32:KERNEL32.dll
 0001:0001f199       IsProcessorFeaturePresent  0000000180020199 f   kernel32:KERNEL32.dll
 0001:0001f19f       RtlUnwindEx                000000018002019f f   kernel32:KERNEL32.dll
 0001:0001f1b0       _FindPESection             00000001800201b0 f   LIBCMT:pesect.obj
 0001:0001f200       _IsNonwritableInCurrentImage 0000000180020200 f   LIBCMT:pesect.obj
 0001:0001f250       _ValidateImageBase         0000000180020250 f   LIBCMT:pesect.obj
 0001:0001f290       __chkstk                   0000000180020290 f   LIBCMT:_chkstk_.obj
 0001:0001f290       _alloca_probe              0000000180020290 f   LIBCMT:_chkstk_.obj
 0001:0001f300       _guard_dispatch_icall_nop  0000000180020300 f   LIBCMT:_guard_dispatch_.obj
 0001:0001f320       __guard_ss_verify_failure  0000000180020320 f   LIBCMT:_rfgfailure_.obj
 0001:0001f32b       __guard_ss_verify_failure_rcx 000000018002032b     LIBCMT:_rfgfailure_.obj
 0001:0001f331       __guard_ss_verify_failure_rdx 0000000180020331     LIBCMT:_rfgfailure_.obj
 0001:0001f337       __guard_ss_verify_failure_r8 0000000180020337     LIBCMT:_rfgfailure_.obj
 0001:0001f33d       __guard_ss_verify_failure_r9 000000018002033d     LIBCMT:_rfgfailure_.obj
 0001:0001f343       __guard_ss_verify_failure_r10 0000000180020343     LIBCMT:_rfgfailure_.obj
 0001:0001f350       __guard_ss_verify_failure_default 0000000180020350 f   LIBCMT:_rfgfailure_.obj
 0001:0001f3b0       __guard_ss_verify_sp       00000001800203b0 f   LIBCMT:_rfgfailure_.obj
 0001:0001f3c0       __guard_ss_verify_sp_default 00000001800203c0 f   LIBCMT:_rfgfailure_.obj
 0002:00000000       __imp_RegSetValueExW       0000000180021000     advapi32:ADVAPI32.dll
 0002:00000008       __imp_RegQueryValueExW     0000000180021008     advapi32:ADVAPI32.dll
 0002:00000010       __imp_RegOpenKeyExW        0000000180021010     advapi32:ADVAPI32.dll
 0002:00000018       __imp_RegCreateKeyExW      0000000180021018     advapi32:ADVAPI32.dll
 0002:00000020       __imp_RegCloseKey          0000000180021020     advapi32:ADVAPI32.dll
 0002:00000028       \177ADVAPI32_NULL_THUNK_DATA 0000000180021028     advapi32:ADVAPI32.dll
 0002:00000030       __imp_GdiFlush             0000000180021030     gdi32:GDI32.dll
 0002:00000038       __imp_GetObjectW           0000000180021038     gdi32:GDI32.dll
 0002:00000040       __imp_CreateDIBSection     0000000180021040     gdi32:GDI32.dll
 0002:00000048       __imp_GdiAlphaBlend        0000000180021048     gdi32:GDI32.dll
 0002:00000050       __imp_SetStretchBltMode    0000000180021050     gdi32:GDI32.dll
 0002:00000058       __imp_StretchBlt           0000000180021058     gdi32:GDI32.dll
 0002:00000060       __imp_MoveToEx             0000000180021060     gdi32:GDI32.dll
 0002:00000068       __imp_SetTextColor         0000000180021068     gdi32:GDI32.dll
 0002:00000070       __imp_SetBkColor           0000000180021070     gdi32:GDI32.dll
 0002:00000078       __imp_SelectObject         0000000180021078     gdi32:GDI32.dll
 0002:00000080       __imp_Rectangle            0000000180021080     gdi32:GDI32.dll
 0002:00000088       __imp_LineTo               0000000180021088     gdi32:GDI32.dll
 0002:00000090       __imp_GetStockObject       0000000180021090     gdi32:GDI32.dll
 0002:00000098       __imp_DeleteObject         0000000180021098     gdi32:GDI32.dll
 0002:000000a0       __imp_DeleteDC             00000001800210a0     gdi32:GDI32.dll
 0002:000000a8       __imp_CreateSolidBrush     00000001800210a8     gdi32:GDI32.dll
 0002:000000b0       __imp_CreatePen            00000001800210b0     gdi32:GDI32.dll
 0002:000000b8       __imp_CreateFontW          00000001800210b8     gdi32:GDI32.dll
 0002:000000c0       __imp_CreateCompatibleDC   00000001800210c0     gdi32:GDI32.dll
 0002:000000c8       __imp_CreateCompatibleBitmap 00000001800210c8     gdi32:GDI32.dll
 0002:000000d0       __imp_BitBlt               00000001800210d0     gdi32:GDI32.dll
 0002:000000d8       \177GDI32_NULL_THUNK_DATA  00000001800210d8     gdi32:GDI32.dll
 0002:000000e0       __imp_GetExitCodeThread    00000001800210e0     kernel32:KERNEL32.dll
 0002:000000e8       __imp_SetEvent             00000001800210e8     kernel32:KERNEL32.dll
 0002:000000f0       __imp_WaitForMultipleObjects 00000001800210f0     kernel32:KERNEL32.dll
 0002:000000f8       __imp_Sleep                00000001800210f8     kernel32:KERNEL32.dll
 0002:00000100       __imp_FileTimeToSystemTime 0000000180021100     kernel32:KERNEL32.dll
 0002:00000108       __imp_CreateEventW         0000000180021108     kernel32:KERNEL32.dll
 0002:00000110       __imp_FreeLibrary          0000000180021110     kernel32:KERNEL32.dll
 0002:00000118       __imp_ResetEvent           0000000180021118     kernel32:KERNEL32.dll
 0002:00000120       __imp_FindClose            0000000180021120     kernel32:KERNEL32.dll
 0002:00000128       __imp_GetTickCount         0000000180021128     kernel32:KERNEL32.dll
 0002:00000130       __imp_LoadLibraryW         0000000180021130     kernel32:KERNEL32.dll
 0002:00000138       __imp_GetTempPathW         0000000180021138     kernel32:KERNEL32.dll
 0002:00000140       __imp_CreateFileW          0000000180021140     kernel32:KERNEL32.dll
 0002:00000148       __imp_FindFirstFileW       0000000180021148     kernel32:KERNEL32.dll
 0002:00000150       __imp_FindNextFileW        0000000180021150     kernel32:KERNEL32.dll
 0002:00000158       __imp_IsBadReadPtr         0000000180021158     kernel32:KERNEL32.dll
 0002:00000160       __imp_WriteConsoleW        0000000180021160     kernel32:KERNEL32.dll
 0002:00000168       __imp_SetFilePointerEx     0000000180021168     kernel32:KERNEL32.dll
 0002:00000170       __imp_GetConsoleMode       0000000180021170     kernel32:KERNEL32.dll
 0002:00000178       __imp_GetConsoleCP         0000000180021178     kernel32:KERNEL32.dll
 0002:00000180       __imp_FlushFileBuffers     0000000180021180     kernel32:KERNEL32.dll
 0002:00000188       __imp_SetStdHandle         0000000180021188     kernel32:KERNEL32.dll
 0002:00000190       __imp_GetFileType          0000000180021190     kernel32:KERNEL32.dll
 0002:00000198       __imp_GetProcessHeap       0000000180021198     kernel32:KERNEL32.dll
 0002:000001a0       __imp_LocalAlloc           00000001800211a0     kernel32:KERNEL32.dll
 0002:000001a8       __imp_FreeEnvironmentStringsW 00000001800211a8     kernel32:KERNEL32.dll
 0002:000001b0       __imp_GetEnvironmentStringsW 00000001800211b0     kernel32:KERNEL32.dll
 0002:000001b8       __imp_GetCommandLineW      00000001800211b8     kernel32:KERNEL32.dll
 0002:000001c0       __imp_GetCommandLineA      00000001800211c0     kernel32:KERNEL32.dll
 0002:000001c8       __imp_GetCPInfo            00000001800211c8     kernel32:KERNEL32.dll
 0002:000001d0       __imp_GetOEMCP             00000001800211d0     kernel32:KERNEL32.dll
 0002:000001d8       __imp_IsValidCodePage      00000001800211d8     kernel32:KERNEL32.dll
 0002:000001e0       __imp_FindNextFileA        00000001800211e0     kernel32:KERNEL32.dll
 0002:000001e8       __imp_FindFirstFileExA     00000001800211e8     kernel32:KERNEL32.dll
 0002:000001f0       __imp_LCMapStringW         00000001800211f0     kernel32:KERNEL32.dll
 0002:000001f8       __imp_GetACP               00000001800211f8     kernel32:KERNEL32.dll
 0002:00000200       __imp_GetStringTypeW       0000000180021200     kernel32:KERNEL32.dll
 0002:00000208       __imp_GetModuleFileNameA   0000000180021208     kernel32:KERNEL32.dll
 0002:00000210       __imp_GetModuleHandleExW   0000000180021210     kernel32:KERNEL32.dll
 0002:00000218       __imp_ExitProcess          0000000180021218     kernel32:KERNEL32.dll
 0002:00000220       __imp_RtlPcToFileHeader    0000000180021220     kernel32:KERNEL32.dll
 0002:00000228       __imp_LoadLibraryExW       0000000180021228     kernel32:KERNEL32.dll
 0002:00000230       __imp_TlsFree              0000000180021230     kernel32:KERNEL32.dll
 0002:00000238       __imp_TlsSetValue          0000000180021238     kernel32:KERNEL32.dll
 0002:00000240       __imp_MultiByteToWideChar  0000000180021240     kernel32:KERNEL32.dll
 0002:00000248       __imp_lstrlenA             0000000180021248     kernel32:KERNEL32.dll
 0002:00000250       __imp_lstrcpynA            0000000180021250     kernel32:KERNEL32.dll
 0002:00000258       __imp_lstrcmpW             0000000180021258     kernel32:KERNEL32.dll
 0002:00000260       __imp_Thread32Next         0000000180021260     kernel32:KERNEL32.dll
 0002:00000268       __imp_Thread32First        0000000180021268     kernel32:KERNEL32.dll
 0002:00000270       __imp_CreateToolhelp32Snapshot 0000000180021270     kernel32:KERNEL32.dll
 0002:00000278       __imp_WriteConsoleInputW   0000000180021278     kernel32:KERNEL32.dll
 0002:00000280       __imp_ReadConsoleInputW    0000000180021280     kernel32:KERNEL32.dll
 0002:00000288       __imp_WideCharToMultiByte  0000000180021288     kernel32:KERNEL32.dll
 0002:00000290       __imp_SetEnvironmentVariableW 0000000180021290     kernel32:KERNEL32.dll
 0002:00000298       __imp_GetModuleHandleW     0000000180021298     kernel32:KERNEL32.dll
 0002:000002a0       __imp_GetModuleFileNameW   00000001800212a0     kernel32:KERNEL32.dll
 0002:000002a8       __imp_OpenFileMappingW     00000001800212a8     kernel32:KERNEL32.dll
 0002:000002b0       __imp_CreateFileMappingW   00000001800212b0     kernel32:KERNEL32.dll
 0002:000002b8       __imp_lstrlenW             00000001800212b8     kernel32:KERNEL32.dll
 0002:000002c0       __imp_lstrcpyW             00000001800212c0     kernel32:KERNEL32.dll
 0002:000002c8       __imp_lstrcpynW            00000001800212c8     kernel32:KERNEL32.dll
 0002:000002d0       __imp_lstrcmpiW            00000001800212d0     kernel32:KERNEL32.dll
 0002:000002d8       __imp_UnmapViewOfFile      00000001800212d8     kernel32:KERNEL32.dll
 0002:000002e0       __imp_MapViewOfFile        00000001800212e0     kernel32:KERNEL32.dll
 0002:000002e8       __imp_GetStdHandle         00000001800212e8     kernel32:KERNEL32.dll
 0002:000002f0       __imp_WaitForSingleObject  00000001800212f0     kernel32:KERNEL32.dll
 0002:000002f8       __imp_GetLastError         00000001800212f8     kernel32:KERNEL32.dll
 0002:00000300       __imp_GetCurrentThreadId   0000000180021300     kernel32:KERNEL32.dll
 0002:00000308       __imp_GetCurrentProcessId  0000000180021308     kernel32:KERNEL32.dll
 0002:00000310       __imp_CloseHandle          0000000180021310     kernel32:KERNEL32.dll
 0002:00000318       __imp_TlsGetValue          0000000180021318     kernel32:KERNEL32.dll
 0002:00000320       __imp_VirtualProtect       0000000180021320     kernel32:KERNEL32.dll
 0002:00000328       __imp_LocalFree            0000000180021328     kernel32:KERNEL32.dll
 0002:00000330       __imp_TlsAlloc             0000000180021330     kernel32:KERNEL32.dll
 0002:00000338       __imp_GetProcAddress       0000000180021338     kernel32:KERNEL32.dll
 0002:00000340       __imp_HeapCreate           0000000180021340     kernel32:KERNEL32.dll
 0002:00000348       __imp_HeapDestroy          0000000180021348     kernel32:KERNEL32.dll
 0002:00000350       __imp_HeapAlloc            0000000180021350     kernel32:KERNEL32.dll
 0002:00000358       __imp_HeapReAlloc          0000000180021358     kernel32:KERNEL32.dll
 0002:00000360       __imp_HeapFree             0000000180021360     kernel32:KERNEL32.dll
 0002:00000368       __imp_HeapSize             0000000180021368     kernel32:KERNEL32.dll
 0002:00000370       __imp_VerSetConditionMask  0000000180021370     kernel32:KERNEL32.dll
 0002:00000378       __imp_VerifyVersionInfoW   0000000180021378     kernel32:KERNEL32.dll
 0002:00000380       __imp_SetLastError         0000000180021380     kernel32:KERNEL32.dll
 0002:00000388       __imp_IsDebuggerPresent    0000000180021388     kernel32:KERNEL32.dll
 0002:00000390       __imp_WriteFile            0000000180021390     kernel32:KERNEL32.dll
 0002:00000398       __imp_ReadFile             0000000180021398     kernel32:KERNEL32.dll
 0002:000003a0       __imp_SetNamedPipeHandleState 00000001800213a0     kernel32:KERNEL32.dll
 0002:000003a8       __imp_TransactNamedPipe    00000001800213a8     kernel32:KERNEL32.dll
 0002:000003b0       __imp_WaitNamedPipeW       00000001800213b0     kernel32:KERNEL32.dll
 0002:000003b8       __imp_Process32FirstW      00000001800213b8     kernel32:KERNEL32.dll
 0002:000003c0       __imp_Process32NextW       00000001800213c0     kernel32:KERNEL32.dll
 0002:000003c8       __imp_OpenThread           00000001800213c8     kernel32:KERNEL32.dll
 0002:000003d0       __imp_RaiseException       00000001800213d0     kernel32:KERNEL32.dll
 0002:000003d8       __imp_CreateThread         00000001800213d8     kernel32:KERNEL32.dll
 0002:000003e0       __imp_TerminateThread      00000001800213e0     kernel32:KERNEL32.dll
 0002:000003e8       __imp_ResumeThread         00000001800213e8     kernel32:KERNEL32.dll
 0002:000003f0       __imp_GetFileInformationByHandle 00000001800213f0     kernel32:KERNEL32.dll
 0002:000003f8       __imp_GetEnvironmentVariableW 00000001800213f8     kernel32:KERNEL32.dll
 0002:00000400       __imp_ExpandEnvironmentStringsW 0000000180021400     kernel32:KERNEL32.dll
 0002:00000408       __imp_InitializeCriticalSection 0000000180021408     kernel32:KERNEL32.dll
 0002:00000410       __imp_EnterCriticalSection 0000000180021410     kernel32:KERNEL32.dll
 0002:00000418       __imp_LeaveCriticalSection 0000000180021418     kernel32:KERNEL32.dll
 0002:00000420       __imp_TryEnterCriticalSection 0000000180021420     kernel32:KERNEL32.dll
 0002:00000428       __imp_DeleteCriticalSection 0000000180021428     kernel32:KERNEL32.dll
 0002:00000430       __imp_ReadConsoleOutputW   0000000180021430     kernel32:KERNEL32.dll
 0002:00000438       __imp_GetConsoleScreenBufferInfo 0000000180021438     kernel32:KERNEL32.dll
 0002:00000440       __imp_GetCurrentProcess    0000000180021440     kernel32:KERNEL32.dll
 0002:00000448       __imp_RtlCaptureContext    0000000180021448     kernel32:KERNEL32.dll
 0002:00000450       __imp_RtlLookupFunctionEntry 0000000180021450     kernel32:KERNEL32.dll
 0002:00000458       __imp_RtlVirtualUnwind     0000000180021458     kernel32:KERNEL32.dll
 0002:00000460       __imp_UnhandledExceptionFilter 0000000180021460     kernel32:KERNEL32.dll
 0002:00000468       __imp_SetUnhandledExceptionFilter 0000000180021468     kernel32:KERNEL32.dll
 0002:00000470       __imp_TerminateProcess     0000000180021470     kernel32:KERNEL32.dll
 0002:00000478       __imp_IsProcessorFeaturePresent 0000000180021478     kernel32:KERNEL32.dll
 0002:00000480       __imp_QueryPerformanceCounter 0000000180021480     kernel32:KERNEL32.dll
 0002:00000488       __imp_GetSystemTimeAsFileTime 0000000180021488     kernel32:KERNEL32.dll
 0002:00000490       __imp_InitializeSListHead  0000000180021490     kernel32:KERNEL32.dll
 0002:00000498       __imp_GetStartupInfoW      0000000180021498     kernel32:KERNEL32.dll
 0002:000004a0       __imp_RtlUnwindEx          00000001800214a0     kernel32:KERNEL32.dll
 0002:000004a8       __imp_InterlockedFlushSList 00000001800214a8     kernel32:KERNEL32.dll
 0002:000004b0       __imp_EncodePointer        00000001800214b0     kernel32:KERNEL32.dll
 0002:000004b8       __imp_InitializeCriticalSectionAndSpinCount 00000001800214b8     kernel32:KERNEL32.dll
 0002:000004c0       \177KERNEL32_NULL_THUNK_DATA 00000001800214c0     kernel32:KERNEL32.dll
 0002:000004c8       __imp_SHGetFileInfoW       00000001800214c8     shell32:SHELL32.dll
 0002:000004d0       \177SHELL32_NULL_THUNK_DATA 00000001800214d0     shell32:SHELL32.dll
 0002:000004d8       __imp_GetIconInfo          00000001800214d8     user32:USER32.dll
 0002:000004e0       __imp_DrawIconEx           00000001800214e0     user32:USER32.dll
 0002:000004e8       __imp_DestroyIcon          00000001800214e8     user32:USER32.dll
 0002:000004f0       __imp_LoadIconW            00000001800214f0     user32:USER32.dll
 0002:000004f8       __imp_ReleaseDC            00000001800214f8     user32:USER32.dll
 0002:00000500       __imp_GetDC                0000000180021500     user32:USER32.dll
 0002:00000508       __imp_LoadCursorW          0000000180021508     user32:USER32.dll
 0002:00000510       __imp_SetWindowLongPtrW    0000000180021510     user32:USER32.dll
 0002:00000518       __imp_GetWindowLongPtrW    0000000180021518     user32:USER32.dll
 0002:00000520       __imp_SetWindowLongW       0000000180021520     user32:USER32.dll
 0002:00000528       __imp_FillRect             0000000180021528     user32:USER32.dll
 0002:00000530       __imp_InvalidateRect       0000000180021530     user32:USER32.dll
 0002:00000538       __imp_EndPaint             0000000180021538     user32:USER32.dll
 0002:00000540       __imp_BeginPaint           0000000180021540     user32:USER32.dll
 0002:00000548       __imp_DrawTextW            0000000180021548     user32:USER32.dll
 0002:00000550       __imp_ShowWindowAsync      0000000180021550     user32:USER32.dll
 0002:00000558       __imp_DestroyWindow        0000000180021558     user32:USER32.dll
 0002:00000560       __imp_IsWindow             0000000180021560     user32:USER32.dll
 0002:00000568       __imp_UnregisterClassW     0000000180021568     user32:USER32.dll
 0002:00000570       __imp_RegisterClassW       0000000180021570     user32:USER32.dll
 0002:00000578       __imp_DefWindowProcW       0000000180021578     user32:USER32.dll
 0002:00000580       __imp_PostThreadMessageW   0000000180021580     user32:USER32.dll
 0002:00000588       __imp_PostMessageW         0000000180021588     user32:USER32.dll
 0002:00000590       __imp_DispatchMessageW     0000000180021590     user32:USER32.dll
 0002:00000598       __imp_GetMessageW          0000000180021598     user32:USER32.dll
 0002:000005a0       __imp_RegisterWindowMessageW 00000001800215a0     user32:USER32.dll
 0002:000005a8       __imp_GetWindowThreadProcessId 00000001800215a8     user32:USER32.dll
 0002:000005b0       __imp_GetClassNameW        00000001800215b0     user32:USER32.dll
 0002:000005b8       __imp_IntersectRect        00000001800215b8     user32:USER32.dll
 0002:000005c0       __imp_ChildWindowFromPointEx 00000001800215c0     user32:USER32.dll
 0002:000005c8       __imp_WindowFromPoint      00000001800215c8     user32:USER32.dll
 0002:000005d0       __imp_MapWindowPoints      00000001800215d0     user32:USER32.dll
 0002:000005d8       __imp_MessageBoxW          00000001800215d8     user32:USER32.dll
 0002:000005e0       __imp_GetClientRect        00000001800215e0     user32:USER32.dll
 0002:000005e8       __imp_MapVirtualKeyW       00000001800215e8     user32:USER32.dll
 0002:000005f0       __imp_GetKeyState          00000001800215f0     user32:USER32.dll
 0002:000005f8       __imp_IsWindowVisible      00000001800215f8     user32:USER32.dll
 0002:00000600       __imp_wsprintfW            0000000180021600     user32:USER32.dll
 0002:00000608       __imp_CreateWindowExW      0000000180021608     user32:USER32.dll
 0002:00000610       __imp_wsprintfA            0000000180021610     user32:USER32.dll
 0002:00000618       __imp_ShowWindow           0000000180021618     user32:USER32.dll
 0002:00000620       \177USER32_NULL_THUNK_DATA 0000000180021620     user32:USER32.dll
 0002:00000628       __imp_GetFileVersionInfoW  0000000180021628     version:VERSION.dll
 0002:00000630       __imp_GetFileVersionInfoSizeW 0000000180021630     version:VERSION.dll
 0002:00000638       __imp_VerQueryValueW       0000000180021638     version:VERSION.dll
 0002:00000640       \177VERSION_NULL_THUNK_DATA 0000000180021640     version:VERSION.dll
 0002:00000648       __imp_CoInitialize         0000000180021648     ole32:ole32.dll
 0002:00000650       __imp_CoUninitialize       0000000180021650     ole32:ole32.dll
 0002:00000658       \177ole32_NULL_THUNK_DATA  0000000180021658     ole32:ole32.dll
 0002:00000660       __guard_check_icall_fptr   0000000180021660     LIBCMT:guard_support.obj
 0002:00000668       __guard_dispatch_icall_fptr 0000000180021668     LIBCMT:guard_support.obj
 0002:00000670       __guard_ss_verify_failure_fptr 0000000180021670     LIBCMT:guard_support.obj
 0002:00000678       __guard_ss_verify_sp_fptr  0000000180021678     LIBCMT:guard_support.obj
 0002:00000680       __xc_a                     0000000180021680     LIBCMT:initializers.obj
 0002:00000688       __xc_z                     0000000180021688     LIBCMT:initializers.obj
 0002:00000690       __xi_a                     0000000180021690     LIBCMT:initializers.obj
 0002:00000698       __acrt_multibyte_initializer 0000000180021698     libucrt:multibyte_initializer.obj
 0002:000006a0       __acrt_stdio_initializer   00000001800216a0     libucrt:stdio_initializer.obj
 0002:000006a8       __acrt_tran_fma3_initializer 00000001800216a8     libucrt:fma3_initializer.obj
 0002:000006b0       __xi_z                     00000001800216b0     LIBCMT:initializers.obj
 0002:000006b8       __xp_a                     00000001800216b8     LIBCMT:initializers.obj
 0002:000006c0       __acrt_locale_terminator   00000001800216c0     libucrt:locale_initializer.obj
 0002:000006c8       __dcrt_console_output_terminator 00000001800216c8     libucrt:console_output_initializer.obj
 0002:000006d0       __acrt_stdio_terminator    00000001800216d0     libucrt:stdio_initializer.obj
 0002:000006d8       __xp_z                     00000001800216d8     LIBCMT:initializers.obj
 0002:000006e0       __xt_a                     00000001800216e0     LIBCMT:initializers.obj
 0002:000006e8       __xt_z                     00000001800216e8     LIBCMT:initializers.obj
 0002:000006f0       ??_C@_08BCACMCCB@ExitFARW?$AA@ 00000001800216f0     ConEmuTh.obj
 0002:00000700       ??_C@_0BF@NLPJFAHE@ProcessSynchroEventW?$AA@ 0000000180021700     ConEmuTh.obj
 0002:00000790       ??_C@_11LOCGONAA@?$AA?$AA@ 0000000180021790     ConEmuTh.obj
 0002:000007a0       ??_C@_0EB@FPAMCAKL@t?3?2vcproject?2maximus5?2conemu?2src@ 00000001800217a0     ConEmuTh.obj
 0002:000007e4       ??_C@_13FPGAJAPJ@?$AA?2?$AA?$AA@ 00000001800217e4     ConEmuTh.obj
 0002:000007f0       ??_C@_1FG@DPPGENBC@?$AAL?$AAo?$AAa?$AAd?$AAA?$AAp?$AAp?$AAV?$AAe?$AAr?$AAs?$AAi?$AAo?$AAn?$AA?4?$AAV?$AAe?$AAr?$AAQ?$AAu?$AAe?$AAr?$AAy?$AAV?$AAa?$AAl?$AAu?$AAe?$AA?$CI?$AA?$CC?$AA?2?$AA?$CC@ 00000001800217f0     ConEmuTh.obj
 0002:00000850       ??_C@_1FK@HILEEFML@?$AAL?$AAo?$AAa?$AAd?$AAA?$AAp?$AAp?$AAV?$AAe?$AAr?$AAs?$AAi?$AAo?$AAn?$AA?4?$AAG?$AAe?$AAt?$AAF?$AAi?$AAl?$AAe?$AAV?$AAe?$AAr?$AAs?$AAi?$AAo?$AAn?$AAI?$AAn?$AAf@ 0000000180021850     ConEmuTh.obj
 0002:000008b0       ??_C@_1GC@BINFLBDC@?$AAL?$AAo?$AAa?$AAd?$AAA?$AAp?$AAp?$AAV?$AAe?$AAr?$AAs?$AAi?$AAo?$AAn?$AA?5?$AAf?$AAa?$AAi?$AAl?$AAe?$AAd?$AA?$CB?$AA?5?$AAC?$AAa?$AAn?$AA?8?$AAt?$AA?5?$AAa?$AAl?$AAl@ 00000001800218b0     ConEmuTh.obj
 0002:00000920       ??_C@_1GC@CPPHDKJK@?$AAL?$AAo?$AAa?$AAd?$AAA?$AAp?$AAp?$AAV?$AAe?$AAr?$AAs?$AAi?$AAo?$AAn?$AA?4?$AAG?$AAe?$AAt?$AAF?$AAi?$AAl?$AAe?$AAV?$AAe?$AAr?$AAs?$AAi?$AAo?$AAn?$AAI?$AAn?$AAf@ 0000000180021920     ConEmuTh.obj
 0002:00000990       ??_C@_1EG@IINOBDEG@?$AAI?$AAn?$AAv?$AAa?$AAl?$AAi?$AAd?$AA?5?$AAa?$AAs?$AAM?$AAo?$AAd?$AAu?$AAl?$AAe?$AAP?$AAa?$AAt?$AAh?$AA?5?$AAw?$AAa?$AAs?$AA?5?$AAs?$AAp?$AAe?$AAc?$AAi?$AAf?$AAi@ 0000000180021990     ConEmuTh.obj
 0002:000009d8       ??_C@_1CA@GGFPMHLH@?$AA?6?$AAE?$AAr?$AAr?$AAC?$AAo?$AAd?$AAe?$AA?$DN?$AA0?$AAx?$AA?$CF?$AA0?$AA8?$AAX?$AA?$AA@ 00000001800219d8     ConEmuTh.obj
 0002:00000a00       ??_C@_1FG@LNADFPCE@?$AAL?$AAo?$AAa?$AAd?$AAF?$AAa?$AAr?$AAV?$AAe?$AAr?$AAs?$AAi?$AAo?$AAn?$AA?4?$AAG?$AAe?$AAt?$AAM?$AAo?$AAd?$AAu?$AAl?$AAe?$AAF?$AAi?$AAl?$AAe?$AAN?$AAa?$AAm?$AAe@ 0000000180021a00     ConEmuTh.obj
 0002:00000a58       ??_C@_1CC@MFEKNKAL@?$AAC?$AAo?$AAn?$AAE?$AAm?$AAu?$AAT?$AAh?$AA?4?$AAx?$AA6?$AA4?$AA?4?$AAd?$AAl?$AAl?$AA?$AA@ 0000000180021a58     ConEmuTh.obj
 0002:00000a80       ??_C@_1BO@ONHPLONP@?$AAC?$AAo?$AAn?$AAE?$AAm?$AAu?$AA?4?$AAx?$AA6?$AA4?$AA?4?$AAd?$AAl?$AAl?$AA?$AA@ 0000000180021a80     ConEmuTh.obj
 0002:00000aa0       ??_C@_0BC@MKJHPCEO@RegisterPanelView?$AA@ 0000000180021aa0     ConEmuTh.obj
 0002:00000ab8       ??_C@_0M@FMNOKGGE@GetFarHWND2?$AA@ 0000000180021ab8     ConEmuTh.obj
 0002:00000ac8       ??_C@_1BM@HEIDIPPL@?$AAL?$AAe?$AAf?$AAt?$AAP?$AAa?$AAn?$AAe?$AAl?$AAV?$AAi?$AAe?$AAw?$AA?$AA@ 0000000180021ac8     ConEmuTh.obj
 0002:00000ae8       ??_C@_1BO@KCLMEFLE@?$AAR?$AAi?$AAg?$AAh?$AAt?$AAP?$AAa?$AAn?$AAe?$AAl?$AAV?$AAi?$AAe?$AAw?$AA?$AA@ 0000000180021ae8     ConEmuTh.obj
 0002:00000b08       ??_C@_0BG@KAEEJBHI@ConEmuTh?2ConEmuTh?4cpp?$AA@ 0000000180021b08     ConEmuTh.obj
 0002:00000b20       ??_C@_1DM@JLCDNDHD@?$AAC?$AAo?$AAn?$AAE?$AAm?$AAu?$AAP?$AAa?$AAn?$AAe?$AAl?$AAV?$AAi?$AAe?$AAw?$AAD?$AAl?$AAg?$AAs?$AAM?$AAa?$AAp?$AAp?$AAi?$AAn?$AAg?$AA?4?$AA?$CF?$AAu?$AA?$AA@ 0000000180021b20     ConEmuTh.obj
 0002:00000b60       ??_C@_1O@EMLLFJNI@?$AAA?$AAc?$AAt?$AAi?$AAv?$AAe?$AA?$AA@ 0000000180021b60     ConEmuTh.obj
 0002:00000b70       ??_C@_1BM@OLHABKH@?$AAF?$AAa?$AAr?$AAT?$AAh?$AAu?$AAm?$AAb?$AAn?$AAa?$AAi?$AAl?$AAs?$AA?$AA@ 0000000180021b70     ConEmuTh.obj
 0002:00000b90       ??_C@_1DG@DBEAEOKG@?$AAF?$AAa?$AAr?$AAP?$AAi?$AAc?$AAt?$AAu?$AAr?$AAe?$AAV?$AAi?$AAe?$AAw?$AAC?$AAo?$AAn?$AAt?$AAr?$AAo?$AAl?$AAC?$AAl?$AAa?$AAs?$AAs?$AA?$AA@ 0000000180021b90     ConEmuTh.obj
 0002:00000bc8       ??_C@_1DC@FOGHAECG@?$AAF?$AAa?$AAr?$AAM?$AAu?$AAl?$AAt?$AAi?$AAV?$AAi?$AAe?$AAw?$AAC?$AAo?$AAn?$AAt?$AAr?$AAo?$AAl?$AAC?$AAl?$AAa?$AAs?$AAs?$AA?$AA@ 0000000180021bc8     ConEmuTh.obj
 0002:00000c00       ??_C@_1DA@BMIFHIMF@?$AAC?$AAo?$AAn?$AAE?$AAm?$AAu?$AAV?$AAi?$AAe?$AAw?$AAS?$AAe?$AAt?$AAM?$AAa?$AAp?$AAp?$AAi?$AAn?$AAg?$AA?4?$AA?$CF?$AAu?$AA?$AA@ 0000000180021c00     ConEmuTh.obj
 0002:00000c30       ??_C@_1BC@DJOGOIHN@?$AAC?$AAo?$AAn?$AAE?$AAm?$AAu?$AAT?$AAh?$AA?$AA@ 0000000180021c30     ConEmuTh.obj
 0002:00000c48       ??_C@_1DM@OLPDHEPA@?$AAF?$AAa?$AAi?$AAl?$AAe?$AAd?$AA?5?$AAt?$AAo?$AA?5?$AAg?$AAe?$AAt?$AA?5?$AAC?$AAo?$AAn?$AAE?$AAm?$AAu?$AA?5?$AAp?$AAa?$AAl?$AAe?$AAt?$AAt?$AAe?$AA?$CB?$AA?$AA@ 0000000180021c48     ConEmuTh.obj
 0002:00000c88       ??_C@_1CG@HOMCPCN@?$AA?2?$AAP?$AAl?$AAu?$AAg?$AAi?$AAn?$AAs?$AA?2?$AAP?$AAa?$AAn?$AAe?$AAl?$AAT?$AAa?$AAb?$AAs?$AA?$AA@ 0000000180021c88     ConEmuTh.obj
 0002:00000cb0       ??_C@_1BK@NFAPLMGI@?$AAS?$AAe?$AAp?$AAa?$AAr?$AAa?$AAt?$AAe?$AAT?$AAa?$AAb?$AAs?$AA?$AA@ 0000000180021cb0     ConEmuTh.obj
 0002:00000cd0       ??_C@_1BI@GILFJGEK@?$AAB?$AAu?$AAt?$AAt?$AAo?$AAn?$AAC?$AAo?$AAl?$AAo?$AAr?$AA?$AA@ 0000000180021cd0     ConEmuTh.obj
 0002:00000cf0       ??_C@_1GK@OGACKIKJ@?$AAI?$AAn?$AAt?$AAe?$AAr?$AAn?$AAa?$AAl?$AA?5?$AAe?$AAr?$AAr?$AAo?$AAr?$AA?4?$AA?5?$AAM?$AAa?$AAp?$AAp?$AAi?$AAn?$AAg?$AA?5?$AAf?$AAi?$AAl?$AAe?$AA?5?$AAn?$AAa?$AAm@ 0000000180021cf0     ConEmuTh.obj
 0002:00000d60       ??_C@_1O@KBENBEFG@?$AAc?$AAr?$AAe?$AAa?$AAt?$AAe?$AA?$AA@ 0000000180021d60     ConEmuTh.obj
 0002:00000d70       ??_C@_19BDAJEHDN@?$AAo?$AAp?$AAe?$AAn?$AA?$AA@ 0000000180021d70     ConEmuTh.obj
 0002:00000d80       ??_C@_1GM@LGOLGABE@?$AAC?$AAa?$AAn?$AA?8?$AAt?$AA?5?$AA?$CF?$AAs?$AA?5?$AAc?$AAo?$AAn?$AAs?$AAo?$AAl?$AAe?$AA?5?$AAd?$AAa?$AAt?$AAa?$AA?5?$AAf?$AAi?$AAl?$AAe?$AA?5?$AAm?$AAa?$AAp?$AAp?$AAi@ 0000000180021d80     ConEmuTh.obj
 0002:00000df0       ??_C@_1BE@HADLJAO@?$AAR?$AAe?$AAa?$AAd?$AAW?$AAr?$AAi?$AAt?$AAe?$AA?$AA@ 0000000180021df0     ConEmuTh.obj
 0002:00000e08       ??_C@_19EOHDNDII@?$AAR?$AAe?$AAa?$AAd?$AA?$AA@ 0000000180021e08     ConEmuTh.obj
 0002:00000e20       ??_C@_1FO@BGAPBIGG@?$AAC?$AAa?$AAn?$AA?8?$AAt?$AA?5?$AAm?$AAa?$AAp?$AA?5?$AAc?$AAo?$AAn?$AAs?$AAo?$AAl?$AAe?$AA?5?$AAi?$AAn?$AAf?$AAo?$AA?5?$AA?$CI?$AA?$CF?$AAs?$AA?$CJ?$AA?4?$AA?5?$AAE?$AAr?$AAr@ 0000000180021e20     ConEmuTh.obj
 0002:00000e80       ??_C@_0BK@MAPJLGMI@ConEmuTh?2ConEmuTh1900?4cpp?$AA@ 0000000180021e80     ConEmuTh1900.obj
 0002:00000ea0       ??_C@_17JLFEDMMI@?$AA?$DP?$AA?$DP?$AA?$DP?$AA?$AA@ 0000000180021ea0     ConEmuTh1900.obj
 0002:00000ea8       ??_C@_1BI@EKLHEFDO@?$AAS?$AAh?$AAo?$AAw?$AAM?$AAe?$AAn?$AAu?$AAB?$AAa?$AAr?$AA?$AA@ 0000000180021ea8     ConEmuTh1900.obj
 0002:00000ec0       ??_C@_1O@PDEOIOBG@?$AAK?$AAe?$AAy?$AAB?$AAa?$AAr?$AA?$AA@ 0000000180021ec0     ConEmuTh1900.obj
 0002:00000ed0       ??_C@_1BK@MBFACEDG@?$AAC?$AAo?$AAl?$AAu?$AAm?$AAn?$AAT?$AAi?$AAt?$AAl?$AAe?$AAs?$AA?$AA@ 0000000180021ed0     ConEmuTh1900.obj
 0002:00000ef0       ??_C@_1BG@MHMKAABO@?$AAS?$AAt?$AAa?$AAt?$AAu?$AAs?$AAL?$AAi?$AAn?$AAe?$AA?$AA@ 0000000180021ef0     ConEmuTh1900.obj
 0002:00000f08       ??_C@_1BC@IALIJCAM@?$AAS?$AAo?$AAr?$AAt?$AAM?$AAo?$AAd?$AAe?$AA?$AA@ 0000000180021f08     ConEmuTh1900.obj
 0002:00000f20       ??_C@_1CG@DMGPLFKD@?$AAC?$AAo?$AAn?$AAE?$AAm?$AAu?$AA?5?$AAP?$AAa?$AAn?$AAe?$AAl?$AA?5?$AAV?$AAi?$AAe?$AAw?$AAs?$AA?$AA@ 0000000180021f20     ConEmuTh2800.obj
 0002:00000f50       ??_C@_1EM@OOFEGLCO@?$AAT?$AAh?$AAu?$AAm?$AAb?$AAn?$AAa?$AAi?$AAl?$AAs?$AA?5?$AAa?$AAn?$AAd?$AA?5?$AAT?$AAi?$AAl?$AAe?$AAs?$AA?5?$AAi?$AAn?$AA?5?$AAC?$AAo?$AAn?$AAE?$AAm?$AAu?$AA?5?$AAw@ 0000000180021f50     ConEmuTh2800.obj
 0002:00000fa0       ??_C@_1DE@DJEAMLPH@?$AAC?$AAo?$AAn?$AAE?$AAm?$AAu?$AA?4?$AAM?$AAa?$AAx?$AAi?$AAm?$AAu?$AAs?$AA5?$AA?$EA?$AAg?$AAm?$AAa?$AAi?$AAl?$AA?4?$AAc?$AAo?$AAm?$AA?$AA@ 0000000180021fa0     ConEmuTh2800.obj
 0002:00000fd8       ??_C@_0BK@DFNOIKJD@ConEmuTh?2ConEmuTh2800?4cpp?$AA@ 0000000180021fd8     ConEmuTh2800.obj
 0002:00000ff8       ??_C@_1BG@LBJCGLOJ@?$AAS?$AAe?$AAt?$AAC?$AAu?$AAr?$AAI?$AAt?$AAe?$AAm?$AA?$AA@ 0000000180021ff8     ConEmuTh2800.obj
 0002:00001010       ??_C@_1EI@PNMHLKGC@?$AAi?$AAf?$AA?5?$AAA?$AAr?$AAe?$AAa?$AA?4?$AAS?$AAe?$AAa?$AAr?$AAc?$AAh?$AA?5?$AAt?$AAh?$AAe?$AAn?$AA?5?$AAK?$AAe?$AAy?$AAs?$AA?$CI?$AA?$CC?$AAE?$AAs?$AAc?$AA?$CC?$AA?$CJ?$AA?5@ 0000000180022010     ConEmuTh2800.obj
 0002:00001058       ??_C@_1CA@GIGEMLLA@?$AAP?$AAl?$AAu?$AAg?$AAi?$AAn?$AA?4?$AAS?$AAy?$AAn?$AAc?$AAC?$AAa?$AAl?$AAl?$AA?$AA@ 0000000180022058     ConEmuTh2800.obj
 0002:00001078       ??_C@_1CM@IICFOBPI@?$AA$?$AAi?$AAf?$AA?5?$AA?$CI?$AAS?$AAe?$AAa?$AAr?$AAc?$AAh?$AA?$CJ?$AA?5?$AAE?$AAs?$AAc?$AA?5?$AA$?$AAe?$AAn?$AAd?$AA?$AA@ 0000000180022078     ConEmuTh2800.obj
 0002:000010a8       ??_C@_1BG@PKDGNNAF@?$AAc?$AAa?$AAl?$AAl?$AAp?$AAl?$AAu?$AAg?$AAi?$AAn?$AA?$AA@ 00000001800220a8     ConEmuTh2800.obj
 0002:000010c0       ??_C@_1HI@BNDPAPFP@?$AA?$CF?$AAs?$AA?5?$AA?$CF?$AAs?$AA?$CI?$AA?$CC?$AAb?$AAd?$AA4?$AA5?$AA4?$AAd?$AA4?$AA8?$AA?9?$AA4?$AA4?$AA8?$AAe?$AA?9?$AA4?$AA6?$AAc?$AAc?$AA?9?$AA9?$AA0?$AA9?$AAd?$AA?9?$AAb@ 00000001800220c0     ConEmuTh2800.obj
 0002:00001138       ??_C@_0BJ@DIDJCKGP@ConEmuTh?2ConEmuTh995?4cpp?$AA@ 0000000180022138     ConEmuTh995.obj
 0002:00001158       ??_C@_1BE@LFJLOEAN@?$AAC?$AAo?$AAn?$AAE?$AAm?$AAu?$AAT?$AAh?$AA?2?$AA?$AA@ 0000000180022158     ConEmuTh995.obj
 0002:00001170       ??_C@_0BH@GKCMBNGP@ConEmuTh?2ConEmuThA?4cpp?$AA@ 0000000180022170     ConEmuThA.obj
 0002:000011f8       ??_C@_0BG@FGMCOIHO@Thumbs?3?3DisplayThread?$AA@ 00000001800221f8     Display.obj
 0002:00001210       ??_C@_19DKAIAFPE@?$AAL?$AAe?$AAf?$AAt?$AA?$AA@ 0000000180022210     Display.obj
 0002:00001220       ??_C@_1M@KDEMMBOH@?$AAR?$AAi?$AAg?$AAh?$AAt?$AA?$AA@ 0000000180022220     Display.obj
 0002:00001230       ??_C@_1CM@MJKKOLFD@?$AAC?$AAo?$AAn?$AAE?$AAm?$AAu?$AA?4?$AA?$CF?$AAs?$AAP?$AAa?$AAn?$AAe?$AAl?$AAV?$AAi?$AAe?$AAw?$AA?4?$AA?$CF?$AAi?$AA?$AA@ 0000000180022230     Display.obj
 0002:00001260       ??_C@_1BO@IPKBELC@?$AAC?$AAo?$AAn?$AAE?$AAm?$AAu?$AAT?$AAh?$AA?3?$AA?3?$AAF?$AAa?$AAd?$AAe?$AA?$AA@ 0000000180022260     Display.obj
 0002:00001280       ??_C@_1CG@OILEFJJN@?$AAC?$AAo?$AAn?$AAE?$AAm?$AAu?$AAT?$AAh?$AA?3?$AA?3?$AAS?$AAe?$AAt?$AAt?$AAi?$AAn?$AAg?$AAs?$AA?$AA@ 0000000180022280     Display.obj
 0002:000012a8       ??_C@_1CI@GNBJKMME@?$AAC?$AAo?$AAn?$AAE?$AAm?$AAu?$AAT?$AAh?$AA?3?$AA?3?$AAM?$AAa?$AAp?$AAC?$AAo?$AAo?$AAr?$AAd?$AAs?$AA?$AA@ 00000001800222a8     Display.obj
 0002:000012d0       ??_C@_1CO@LEOKLKOD@?$AA?$CF?$AA0?$AA2?$AAi?$AA?4?$AA?$CF?$AA0?$AA2?$AAi?$AA?4?$AA?$CF?$AA0?$AA2?$AAi?$AA?5?$AA?$CF?$AAi?$AA?3?$AA?$CF?$AA0?$AA2?$AAi?$AA?$AA@ 00000001800222d0     Display.obj
 0002:00001300       ??_C@_1O@NLGMKEDN@?$AAB?$AAK?$AAM?$AAG?$AAT?$AAP?$AA?$AA@ 0000000180022300     Display.obj
 0002:00001310       ??_C@_1BG@NLGHAGA@?$AA?$CF?$AAi?$AA?0?$AA?$CF?$AA0?$AA3?$AAi?$AA?5?$AA?$CF?$AAc?$AA?$AA@ 0000000180022310     Display.obj
 0002:00001328       ??_C@_1M@KOMOBEPM@?$AA?$CF?$AAi?$AA?5?$AA?$CF?$AAc?$AA?$AA@ 0000000180022328     Display.obj
 0002:00001338       ??_C@_0BF@HAAJEDFO@ConEmuTh?2Display?4cpp?$AA@ 0000000180022338     Display.obj
 0002:00001350       ??_C@_1EK@NOCLDABL@?$AAi?$AAf?$AA?5?$AA?$CF?$AAc?$AAP?$AAa?$AAn?$AAe?$AAl?$AA?4?$AAL?$AAe?$AAf?$AAt?$AA?5?$AAt?$AAh?$AAe?$AAn?$AA?5?$AAK?$AAe?$AAy?$AAs?$AA?$CI?$AA?$CC?$AAT?$AAa?$AAb?$AA?$CC?$AA?$CJ@ 0000000180022350     Display.obj
 0002:000013a0       ??_C@_1DI@DLGGKEIH@?$AA$?$AAI?$AAf?$AA?5?$AA?$CI?$AA?$CF?$AAc?$AAP?$AAa?$AAn?$AAe?$AAl?$AA?4?$AAL?$AAe?$AAf?$AAt?$AA?$CJ?$AA?5?$AAT?$AAa?$AAb?$AA?5?$AA$?$AAE?$AAn?$AAd?$AA?$AA@ 00000001800223a0     Display.obj
 0002:000014d0       ??_7?$CQueueProcessor@PEAUIMAGE_CACHE_INFO@@@@6B@ 00000001800224d0     ImgCache.obj
 0002:00001540       ??_7CImgLoader@@6B@        0000000180022540     ImgCache.obj
 0002:000015b8       ??_C@_1M@KCMICNEG@?$AA?$CK?$AA?4?$AAt?$AA6?$AA4?$AA?$AA@ 00000001800225b8     ImgCache.obj
 0002:000015c8       ??_C@_08DHJJJJMJ@CET_Init?$AA@ 00000001800225c8     ImgCache.obj
 0002:000015d8       ??_C@_08CBCDAPII@CET_Done?$AA@ 00000001800225d8     ImgCache.obj
 0002:000015e8       ??_C@_08DBEDCDF@CET_Load?$AA@ 00000001800225e8     ImgCache.obj
 0002:000015f8       ??_C@_08PFMFDMEL@CET_Free?$AA@ 00000001800225f8     ImgCache.obj
 0002:00001608       ??_C@_0L@DOHHADLD@CET_Cancel?$AA@ 0000000180022608     ImgCache.obj
 0002:00001618       ??_C@_1BO@EOFABIPH@?$AAC?$AAo?$AAn?$AAE?$AAm?$AAu?$AAT?$AAh?$AA?4?$AAc?$AAa?$AAc?$AAh?$AAe?$AA?$AA@ 0000000180022618     ImgCache.obj
 0002:00001638       ??_C@_0BG@IPMODAED@ConEmuTh?2ImgCache?4cpp?$AA@ 0000000180022638     ImgCache.obj
 0002:00001650       ??_C@_15DDHGOCBH@?$AA?4?$AA?4?$AA?$AA@ 0000000180022650     ImgCache.obj
 0002:00001658       ??_C@_19DDLLJDOO@?$AAF?$AAi?$AAl?$AAe?$AA?$AA@ 0000000180022658     ImgCache.obj
 0002:00001668       ??_C@_19HKLPDE@?$AA?4?$AAb?$AAm?$AAp?$AA?$AA@ 0000000180022668     ImgCache.obj
 0002:00001678       ??_C@_19KGHJPLAF@?$AA?4?$AAg?$AAi?$AAf?$AA?$AA@ 0000000180022678     ImgCache.obj
 0002:00001688       ??_C@_19GPGAIFNL@?$AA?4?$AAi?$AAc?$AAo?$AA?$AA@ 0000000180022688     ImgCache.obj
 0002:00001698       ??_C@_19HFLOJEOK@?$AA?4?$AAp?$AAn?$AAg?$AA?$AA@ 0000000180022698     ImgCache.obj
 0002:000016a8       ??_C@_19EBFDIIDI@?$AA?4?$AAw?$AAm?$AAf?$AA?$AA@ 00000001800226a8     ImgCache.obj
 0002:000016b8       ??_C@_1BE@DFPCIADA@?$AAP?$AAB?$AAF?$AAa?$AAr?$AA?4?$AAd?$AAl?$AAl?$AA?$AA@ 00000001800226b8     ImgCache.obj
 0002:000016d0       ??_C@_0N@DDFPJHDO@_GetFileData?$AA@ 00000001800226d0     ImgCache.obj
 0002:000016e0       ??_C@_0DL@DGFCHJEK@t?3?2vcproject?2maximus5?2conemu?2src@ 00000001800226e0     ImgCache.obj
 0002:00001720       ??_C@_0BJ@KDNBOADC@Thumbs?3?3ProcessingThread?$AA@ 0000000180022720     ImgCache.obj
 0002:00001740       __xmm@00000020000000200000000000000000 0000000180022740     ImgCache.obj
 0002:00001750       ??_C@_08OIBPMBEH@?L?L?L?L?L?L?L?L?$AA@ 0000000180022750     common-kernel64:Memory.obj
 0002:00001760       ??_C@_0BC@EMFLEJML@common?2Memory?4cpp?$AA@ 0000000180022760     common-kernel64:Memory.obj
 0002:00001778       ??_C@_1BC@LMIJMNIA@?$AA0?$AA0?$AA0?$AA0?$AA0?$AA0?$AA0?$AA0?$AA?$AA@ 0000000180022778     common-kernel64:MStrSafe.obj
 0002:00001790       ??_C@_19FBKLJMA@?$AA0?$AA0?$AA0?$AA0?$AA?$AA@ 0000000180022790     common-kernel64:MStrSafe.obj
 0002:0000179c       ??_C@_15LKGMKBFA@?$AA0?$AA0?$AA?$AA@ 000000018002279c     common-kernel64:MStrSafe.obj
 0002:000017a8       ??_C@_1BO@HJHEFHMO@?$AAK?$AAe?$AAr?$AAn?$AAe?$AAl?$AAB?$AAa?$AAs?$AAe?$AA?4?$AAd?$AAl?$AAl?$AA?$AA@ 00000001800227a8     common-kernel64:MSecurity.obj
 0002:000017c8       ??_C@_1BK@BIGILECK@?$AAA?$AAd?$AAv?$AAa?$AAp?$AAi?$AA3?$AA2?$AA?4?$AAd?$AAl?$AAl?$AA?$AA@ 00000001800227c8     common-kernel64:MSecurity.obj
 0002:000017e8       ??_C@_0BE@IPKPLIM@AddAccessAllowedAce?$AA@ 00000001800227e8     common-kernel64:MSecurity.obj
 0002:00001800       ??_C@_0BD@EIGAJLOG@AddAccessDeniedAce?$AA@ 0000000180022800     common-kernel64:MSecurity.obj
 0002:00001818       ??_C@_0BJ@ECIKFEOL@AllocateAndInitializeSid?$AA@ 0000000180022818     common-kernel64:MSecurity.obj
 0002:00001838       ??_C@_0N@HBKDHKNL@GetLengthSid?$AA@ 0000000180022838     common-kernel64:MSecurity.obj
 0002:00001848       ??_C@_0O@GKCEJBAA@InitializeAcl?$AA@ 0000000180022848     common-kernel64:MSecurity.obj
 0002:00001858       ??_C@_0BN@FNLANPJJ@InitializeSecurityDescriptor?$AA@ 0000000180022858     common-kernel64:MSecurity.obj
 0002:00001878       ??_C@_0BK@DNNLOFO@SetSecurityDescriptorDacl?$AA@ 0000000180022878     common-kernel64:MSecurity.obj
 0002:00001898       ??_C@_1BA@LEPJIIOK@?$AAU?$AAn?$AAk?$AAn?$AAo?$AAw?$AAn?$AA?$AA@ 0000000180022898     common-kernel64:ConEmuCheck.obj
 0002:000018b0       ??_C@_1EM@INHGIPLC@?$AA?$CF?$AAs?$AA?4?$AA?$CF?$AAu?$AA?3?$AA?5?$AAC?$AAr?$AAe?$AAa?$AAt?$AAe?$AAF?$AAi?$AAl?$AAe?$AA?$CI?$AA?$CF?$AAs?$AA?$CJ?$AA?5?$AAf?$AAa?$AAi?$AAl?$AAe?$AAd?$AA?0?$AA?5?$AAc?$AAo@ 00000001800228b0     common-kernel64:ConEmuCheck.obj
 0002:00001900       ??_C@_0BH@IBJODGM@common?2ConEmuCheck?4cpp?$AA@ 0000000180022900     common-kernel64:ConEmuCheck.obj
 0002:00001918       ??_C@_13JOFGPIOO@?$AA?4?$AA?$AA@ 0000000180022918     common-kernel64:ConEmuCheck.obj
 0002:00001920       ??_C@_1DC@MJLCOFMA@?$AA?2?$AA?2?$AA?$CF?$AAs?$AA?2?$AAp?$AAi?$AAp?$AAe?$AA?2?$AAC?$AAo?$AAn?$AAE?$AAm?$AAu?$AAG?$AAu?$AAi?$AA?4?$AA?$CF?$AA0?$AA8?$AAX?$AA?$AA@ 0000000180022920     common-kernel64:ConEmuCheck.obj
 0002:00001960       ??_7?$MToolHelp@UtagPROCESSENTRY32W@@$1?Process32FirstW@@YAHPEAXPEAU1@@Z$1?Process32NextW@@YAH01@Z@@6B@ 0000000180022960     common-kernel64:MProcess.obj
 0002:00001978       ??_7MToolHelpProcess@@6B@  0000000180022978     common-kernel64:MProcess.obj
 0002:00001988       ??_C@_1BK@HHKNEJDC@?$AAt?$AAl?$AAn?$AAt?$AAs?$AAe?$AAs?$AAs?$AA?4?$AAe?$AAx?$AAe?$AA?$AA@ 0000000180022988     common-kernel64:MProcess.obj
 0002:000019a8       ??_C@_1BI@MPDCNJBA@?$AAt?$AAl?$AAn?$AAt?$AAs?$AAv?$AAr?$AA?4?$AAe?$AAx?$AAe?$AA?$AA@ 00000001800229a8     common-kernel64:MProcess.obj
 0002:000019c0       ??_C@_0DB@GCECLDIP@t?3?2vcproject?2maximus5?2conemu?2src@ 00000001800229c0     common-kernel64:MProcess.obj
 0002:000019f8       ??_C@_1BO@MLCHEAGG@?$AAC?$AAo?$AAn?$AAE?$AAm?$AAu?$AAH?$AAk?$AA6?$AA4?$AA?4?$AAd?$AAl?$AAl?$AA?$AA@ 00000001800229f8     common-kernel64:HkFunc.obj
 0002:00001a18       ??_C@_0BD@HGJIAJJM@RequestTrampolines?$AA@ 0000000180022a18     common-kernel64:HkFunc.obj
 0002:00001a2c       ??_C@_05LCABBMOG@?$CFs?3?$CFi?$AA@ 0000000180022a2c     common-kernel64:WThreads.obj
 0002:00001a38       ??_C@_0BE@DBGJFJEJ@common?2WObjects?4cpp?$AA@ 0000000180022a38     common-kernel64:WObjects.obj
 0002:00001a50       ??_C@_19DOGDICKI@?$AA?4?$AAe?$AAx?$AAe?$AA?$AA@ 0000000180022a50     common-kernel64:WObjects.obj
 0002:00001a60       ??_C@_1EHK@JMHPNAMN@?$AAA?$AAC?$AAT?$AAI?$AAV?$AAA?$AAT?$AAE?$AA?$AA?$AAA?$AAL?$AAI?$AAA?$AAS?$AA?$AA?$AAA?$AAS?$AAS?$AAO?$AAC?$AA?$AA?$AAA?$AAT?$AAT?$AAR?$AAI?$AAB?$AA?$AA?$AAB?$AAE?$AAE?$AAP@ 0000000180022a60     common-kernel64:CmdLine.obj
 0002:00001eda       ??_C@_00CNPNBAHC@?$AA@     0000000180022eda     common-kernel64:MStrDup.obj
 0002:00001ee0       ??_C@_0BD@DFGHIKFM@common?2MStrDup?4cpp?$AA@ 0000000180022ee0     common-kernel64:MStrDup.obj
 0002:00001ef8       ??_C@_0BB@PGNHFBGE@common?2CEStr?4cpp?$AA@ 0000000180022ef8     common-kernel64:CEStr.obj
 0002:00001f10       ??_C@_19IJOJOJIB@?$AAP?$AAA?$AAT?$AAH?$AA?$AA@ 0000000180022f10     common-kernel64:CEStr.obj
 0002:00001f48       ??_C@_0BF@MMIEDLOF@common?2RgnDetect?4cpp?$AA@ 0000000180022f48     common-user64:RgnDetect.obj
 0002:00001f60       ??_C@_1CA@DHOHMJCG@?$AAU?$AAn?$AAi?$AAc?$AAo?$AAd?$AAe?$AA?5?$AAC?$AAh?$AAa?$AAr?$AAM?$AAa?$AAp?$AA?$AA@ 0000000180022f60     common-user64:RgnDetect.obj
 0002:00001fb0       ??_C@_1GK@PPEHOOAL@?$AAS?$AAO?$AAF?$AAT?$AAW?$AAA?$AAR?$AAE?$AA?2?$AAM?$AAi?$AAc?$AAr?$AAo?$AAs?$AAo?$AAf?$AAt?$AA?2?$AAW?$AAi?$AAn?$AAd?$AAo?$AAw?$AAs?$AA?2?$AAC?$AAu?$AAr?$AAr?$AAe@ 0000000180022fb0     common-user64:WFiles.obj
 0002:00002020       ??_C@_0BC@HEOJLKJO@common?2WFiles?4cpp?$AA@ 0000000180023020     common-user64:WFiles.obj
 0002:00002034       ??_C@_13PJJBFPED@?$AA?$DL?$AA?$AA@ 0000000180023034     common-user64:WFiles.obj
 0002:00002040       ??_7type_info@@6B@         0000000180023040     LIBCMT:std_type_info_static.obj
 0002:00002048       _pDefaultRawDllMain        0000000180023048     LIBCMT:dll_dllmain.obj
 0002:00002048       _pRawDllMain               0000000180023048     LIBCMT:dll_dllmain.obj
 0002:00002100       ??_7exception@std@@6B@     0000000180023100     libvcruntime:frame.obj
 0002:00002110       ??_C@_0BC@EOODALEL@Unknown?5exception?$AA@ 0000000180023110     libvcruntime:frame.obj
 0002:00002130       ??_7bad_exception@std@@6B@ 0000000180023130     libvcruntime:frame.obj
 0002:00002140       ??_C@_0O@DPKOEFFH@bad?5exception?$AA@ 0000000180023140     libvcruntime:frame.obj
 0002:00002478       ??_C@_08EHJDFFNH@__based?$CI?$AA@ 0000000180023478     libvcruntime:undname.obj
 0002:00002488       ??_C@_07KOLFKCDI@__cdecl?$AA@ 0000000180023488     libvcruntime:undname.obj
 0002:00002490       ??_C@_08GHMPAG@__pascal?$AA@ 0000000180023490     libvcruntime:undname.obj
 0002:000024a0       ??_C@_09IFJBGAPI@__stdcall?$AA@ 00000001800234a0     libvcruntime:undname.obj
 0002:000024b0       ??_C@_0L@NPHFGOKO@__thiscall?$AA@ 00000001800234b0     libvcruntime:undname.obj
 0002:000024c0       ??_C@_0L@JMKHOMEK@__fastcall?$AA@ 00000001800234c0     libvcruntime:undname.obj
 0002:000024d0       ??_C@_0N@BCKKPABJ@__vectorcall?$AA@ 00000001800234d0     libvcruntime:undname.obj
 0002:000024e0       ??_C@_09HIJEGCPM@__clrcall?$AA@ 00000001800234e0     libvcruntime:undname.obj
 0002:000024ec       ??_C@_06GHPCKEAG@__eabi?$AA@ 00000001800234ec     libvcruntime:undname.obj
 0002:000024f8       ??_C@_07JOMMBBKO@__ptr64?$AA@ 00000001800234f8     libvcruntime:undname.obj
 0002:00002500       ??_C@_0L@PILCLIHE@__restrict?$AA@ 0000000180023500     libvcruntime:undname.obj
 0002:00002510       ??_C@_0M@GFIIJFMG@__unaligned?$AA@ 0000000180023510     libvcruntime:undname.obj
 0002:00002520       ??_C@_09DHDLOLLB@restrict?$CI?$AA@ 0000000180023520     libvcruntime:undname.obj
 0002:0000252c       ??_C@_04NIHEBCM@?5new?$AA@ 000000018002352c     libvcruntime:undname.obj
 0002:00002538       ??_C@_07FPCDHGMM@?5delete?$AA@ 0000000180023538     libvcruntime:undname.obj
 0002:00002540       ??_C@_01NEMOKFLO@?$DN?$AA@ 0000000180023540     libvcruntime:undname.obj
 0002:00002544       ??_C@_02GPIOPFAK@?$DO?$DO?$AA@ 0000000180023544     libvcruntime:undname.obj
 0002:00002548       ??_C@_02FODMEDOG@?$DM?$DM?$AA@ 0000000180023548     libvcruntime:undname.obj
 0002:0000254c       ??_C@_01DCLJPIOD@?$CB?$AA@ 000000018002354c     libvcruntime:undname.obj
 0002:00002550       ??_C@_02EGOFBIJA@?$DN?$DN?$AA@ 0000000180023550     libvcruntime:undname.obj
 0002:00002554       ??_C@_02FDNJECIE@?$CB?$DN?$AA@ 0000000180023554     libvcruntime:undname.obj
 0002:00002558       ??_C@_02GPECMEKF@?$FL?$FN?$AA@ 0000000180023558     libvcruntime:undname.obj
 0002:00002560       ??_C@_08LHJFAFGD@operator?$AA@ 0000000180023560     libvcruntime:undname.obj
 0002:0000256c       ??_C@_02HBOOOICD@?9?$DO?$AA@ 000000018002356c     libvcruntime:undname.obj
 0002:00002570       ??_C@_01NBENCBCI@?$CK?$AA@ 0000000180023570     libvcruntime:undname.obj
 0002:00002574       ??_C@_02ECNGHCIF@?$CL?$CL?$AA@ 0000000180023574     libvcruntime:undname.obj
 0002:00002578       ??_C@_02BAABKJLB@?9?9?$AA@ 0000000180023578     libvcruntime:undname.obj
 0002:0000257c       ??_C@_01JOAMLHOP@?9?$AA@   000000018002357c     libvcruntime:undname.obj
 0002:00002580       ??_C@_01MIFGBAGJ@?$CL?$AA@ 0000000180023580     libvcruntime:undname.obj
 0002:00002584       ??_C@_01HNPIGOCE@?$CG?$AA@ 0000000180023584     libvcruntime:undname.obj
 0002:00002588       ??_C@_03MNHNFDLC@?9?$DO?$CK?$AA@ 0000000180023588     libvcruntime:undname.obj
 0002:0000258c       ??_C@_01KMDKNFGN@?1?$AA@   000000018002358c     libvcruntime:undname.obj
 0002:00002590       ??_C@_01FGNFDNOH@?$CF?$AA@ 0000000180023590     libvcruntime:undname.obj
 0002:00002594       ??_C@_01MNNFJEPP@?$DM?$AA@ 0000000180023594     libvcruntime:undname.obj
 0002:00002598       ??_C@_02EHCHHCKH@?$DM?$DN?$AA@ 0000000180023598     libvcruntime:undname.obj
 0002:0000259c       ??_C@_01PPODPGHN@?$DO?$AA@ 000000018002359c     libvcruntime:undname.obj
 0002:000025a0       ??_C@_02EEKDKGMJ@?$DO?$DN?$AA@ 00000001800235a0     libvcruntime:undname.obj
 0002:000025a4       ??_C@_01IHBHIGKO@?0?$AA@   00000001800235a4     libvcruntime:undname.obj
 0002:000025a8       ??_C@_02HCKGKOFO@?$CI?$CJ?$AA@ 00000001800235a8     libvcruntime:undname.obj
 0002:000025ac       ??_C@_01PJKLJHI@?$HO?$AA@  00000001800235ac     libvcruntime:undname.obj
 0002:000025b0       ??_C@_01JKBOJNNK@?$FO?$AA@ 00000001800235b0     libvcruntime:undname.obj
 0002:000025b4       ??_C@_01DNKMNLPK@?$HM?$AA@ 00000001800235b4     libvcruntime:undname.obj
 0002:000025b8       ??_C@_02PPKAJPJL@?$CG?$CG?$AA@ 00000001800235b8     libvcruntime:undname.obj
 0002:000025bc       ??_C@_02NONPIBCD@?$HM?$HM?$AA@ 00000001800235bc     libvcruntime:undname.obj
 0002:000025c0       ??_C@_02FPIMKNGF@?$CK?$DN?$AA@ 00000001800235c0     libvcruntime:undname.obj
 0002:000025c4       ??_C@_02FOEOMHFC@?$CL?$DN?$AA@ 00000001800235c4     libvcruntime:undname.obj
 0002:000025c8       ??_C@_02FKMDLLOA@?9?$DN?$AA@ 00000001800235c8     libvcruntime:undname.obj
 0002:000025cc       ??_C@_02FJEHGPIO@?1?$DN?$AA@ 00000001800235cc     libvcruntime:undname.obj
 0002:000025d0       ??_C@_02FENAOKFI@?$CF?$DN?$AA@ 00000001800235d0     libvcruntime:undname.obj
 0002:000025d4       ??_C@_03IKFCCPFF@?$DO?$DO?$DN?$AA@ 00000001800235d4     libvcruntime:undname.obj
 0002:000025d8       ??_C@_03CDNPDDLA@?$DM?$DM?$DN?$AA@ 00000001800235d8     libvcruntime:undname.obj
 0002:000025dc       ??_C@_02FGJGFEAB@?$CG?$DN?$AA@ 00000001800235dc     libvcruntime:undname.obj
 0002:000025e0       ??_C@_02DHLNPPGH@?$HM?$DN?$AA@ 00000001800235e0     libvcruntime:undname.obj
 0002:000025e4       ??_C@_02MHEGNOJ@?$FO?$DN?$AA@ 00000001800235e4     libvcruntime:undname.obj
 0002:000025e8       ??_C@_09IFPLHPGF@?$GAvftable?8?$AA@ 00000001800235e8     libvcruntime:undname.obj
 0002:000025f8       ??_C@_09BLBHBJP@?$GAvbtable?8?$AA@ 00000001800235f8     libvcruntime:undname.obj
 0002:00002608       ??_C@_07FEEIOKP@?$GAvcall?8?$AA@ 0000000180023608     libvcruntime:undname.obj
 0002:00002610       ??_C@_08LLFFHHDJ@?$GAtypeof?8?$AA@ 0000000180023610     libvcruntime:undname.obj
 0002:00002620       ??_C@_0BF@KDPPACIK@?$GAlocal?5static?5guard?8?$AA@ 0000000180023620     libvcruntime:undname.obj
 0002:00002638       ??_C@_08OBABFOLI@?$GAstring?8?$AA@ 0000000180023638     libvcruntime:undname.obj
 0002:00002648       ??_C@_0BD@JDLKDPAB@?$GAvbase?5destructor?8?$AA@ 0000000180023648     libvcruntime:undname.obj
 0002:00002660       ??_C@_0BN@DEGPLNFK@?$GAvector?5deleting?5destructor?8?$AA@ 0000000180023660     libvcruntime:undname.obj
 0002:00002680       ??_C@_0BO@OBMKPJIG@?$GAdefault?5constructor?5closure?8?$AA@ 0000000180023680     libvcruntime:undname.obj
 0002:000026a0       ??_C@_0BN@IMDCHIKM@?$GAscalar?5deleting?5destructor?8?$AA@ 00000001800236a0     libvcruntime:undname.obj
 0002:000026c0       ??_C@_0BO@PFGOCPJJ@?$GAvector?5constructor?5iterator?8?$AA@ 00000001800236c0     libvcruntime:undname.obj
 0002:000026e0       ??_C@_0BN@LFPFMEDL@?$GAvector?5destructor?5iterator?8?$AA@ 00000001800236e0     libvcruntime:undname.obj
 0002:00002700       ??_C@_0CE@IKBNEHA@?$GAvector?5vbase?5constructor?5iterat@ 0000000180023700     libvcruntime:undname.obj
 0002:00002728       ??_C@_0BL@NILFHHPC@?$GAvirtual?5displacement?5map?8?$AA@ 0000000180023728     libvcruntime:undname.obj
 0002:00002748       ??_C@_0CB@JONCMFFK@?$GAeh?5vector?5constructor?5iterator?8@ 0000000180023748     libvcruntime:undname.obj
 0002:00002770       ??_C@_0CA@GCEOPDGL@?$GAeh?5vector?5destructor?5iterator?8?$AA@ 0000000180023770     libvcruntime:undname.obj
 0002:00002790       ??_C@_0CH@OOJPLCPH@?$GAeh?5vector?5vbase?5constructor?5ite@ 0000000180023790     libvcruntime:undname.obj
 0002:000027b8       ??_C@_0BL@LLKPOHJI@?$GAcopy?5constructor?5closure?8?$AA@ 00000001800237b8     libvcruntime:undname.obj
 0002:000027d8       ??_C@_0BA@KBCDOMBN@?$GAudt?5returning?8?$AA@ 00000001800237d8     libvcruntime:undname.obj
 0002:000027e8       ??_C@_03KLGMFNMG@?$GAEH?$AA@ 00000001800237e8     libvcruntime:undname.obj
 0002:000027ec       ??_C@_05KHLCHHI@?$GARTTI?$AA@ 00000001800237ec     libvcruntime:undname.obj
 0002:000027f8       ??_C@_0BA@KKLDJDLB@?$GAlocal?5vftable?8?$AA@ 00000001800237f8     libvcruntime:undname.obj
 0002:00002808       ??_C@_0CE@IIHCMGGL@?$GAlocal?5vftable?5constructor?5closu@ 0000000180023808     libvcruntime:undname.obj
 0002:0000282c       ??_C@_06FHBGPFGH@?5new?$FL?$FN?$AA@ 000000018002382c     libvcruntime:undname.obj
 0002:00002838       ??_C@_09LBNFPBCA@?5delete?$FL?$FN?$AA@ 0000000180023838     libvcruntime:undname.obj
 0002:00002848       ??_C@_0P@HJKNJFNN@?$GAomni?5callsig?8?$AA@ 0000000180023848     libvcruntime:undname.obj
 0002:00002858       ??_C@_0BL@CNOONJFP@?$GAplacement?5delete?5closure?8?$AA@ 0000000180023858     libvcruntime:undname.obj
 0002:00002878       ??_C@_0BN@CKNJLHMB@?$GAplacement?5delete?$FL?$FN?5closure?8?$AA@ 0000000180023878     libvcruntime:undname.obj
 0002:00002898       ??_C@_0CG@CFDHKGGD@?$GAmanaged?5vector?5constructor?5iter@ 0000000180023898     libvcruntime:undname.obj
 0002:000028c0       ??_C@_0CF@IMGKMJNO@?$GAmanaged?5vector?5destructor?5itera@ 00000001800238c0     libvcruntime:undname.obj
 0002:000028e8       ??_C@_0CG@HLDDJMAG@?$GAeh?5vector?5copy?5constructor?5iter@ 00000001800238e8     libvcruntime:undname.obj
 0002:00002910       ??_C@_0CM@FCBBDIGB@?$GAeh?5vector?5vbase?5copy?5constructo@ 0000000180023910     libvcruntime:undname.obj
 0002:00002940       ??_C@_0BL@CLIPGLGB@?$GAdynamic?5initializer?5for?5?8?$AA@ 0000000180023940     libvcruntime:undname.obj
 0002:00002960       ??_C@_0CB@PDBIFEP@?$GAdynamic?5atexit?5destructor?5for?5?8@ 0000000180023960     libvcruntime:undname.obj
 0002:00002988       ??_C@_0CD@CGAJBKEJ@?$GAvector?5copy?5constructor?5iterato@ 0000000180023988     libvcruntime:undname.obj
 0002:000029b0       ??_C@_0CJ@GJELGAMM@?$GAvector?5vbase?5copy?5constructor?5i@ 00000001800239b0     libvcruntime:undname.obj
 0002:000029e0       ??_C@_0CL@FGIJHLCE@?$GAmanaged?5vector?5copy?5constructor@ 00000001800239e0     libvcruntime:undname.obj
 0002:00002a10       ??_C@_0BM@PMGGMLDN@?$GAlocal?5static?5thread?5guard?8?$AA@ 0000000180023a10     libvcruntime:undname.obj
 0002:00002a30       ??_C@_0N@BDNMDMOL@operator?5?$CC?$CC?5?$AA@ 0000000180023a30     libvcruntime:undname.obj
 0002:00002a40       ??_C@_0BC@GGEBGALA@operator?5co_await?$AA@ 0000000180023a40     libvcruntime:undname.obj
 0002:00002a58       ??_C@_0BC@DAFEJGAK@?5Type?5Descriptor?8?$AA@ 0000000180023a58     libvcruntime:undname.obj
 0002:00002a70       ??_C@_0BM@LDKODKLH@?5Base?5Class?5Descriptor?5at?5?$CI?$AA@ 0000000180023a70     libvcruntime:undname.obj
 0002:00002a90       ??_C@_0BD@LGICGFMM@?5Base?5Class?5Array?8?$AA@ 0000000180023a90     libvcruntime:undname.obj
 0002:00002aa8       ??_C@_0BN@MECKDCOJ@?5Class?5Hierarchy?5Descriptor?8?$AA@ 0000000180023aa8     libvcruntime:undname.obj
 0002:00002ac8       ??_C@_0BK@CFCOFLF@?5Complete?5Object?5Locator?8?$AA@ 0000000180023ac8     libvcruntime:undname.obj
 0002:00002b00       ??_C@_1DM@KHCHBNEB@?$AAa?$AAp?$AAi?$AA?9?$AAm?$AAs?$AA?9?$AAw?$AAi?$AAn?$AA?9?$AAc?$AAo?$AAr?$AAe?$AA?9?$AAf?$AAi?$AAb?$AAe?$AAr?$AAs?$AA?9?$AAl?$AA1?$AA?9?$AA1?$AA?9?$AA1?$AA?$AA@ 0000000180023b00     libvcruntime:winapi_downlevel.obj
 0002:00002b40       ??_C@_1DK@LPPGFMPP@?$AAa?$AAp?$AAi?$AA?9?$AAm?$AAs?$AA?9?$AAw?$AAi?$AAn?$AA?9?$AAc?$AAo?$AAr?$AAe?$AA?9?$AAs?$AAy?$AAn?$AAc?$AAh?$AA?9?$AAl?$AA1?$AA?9?$AA2?$AA?9?$AA0?$AA?$AA@ 0000000180023b40     libvcruntime:winapi_downlevel.obj
 0002:00002b80       ??_C@_1BC@GDMECMAK@?$AAk?$AAe?$AAr?$AAn?$AAe?$AAl?$AA3?$AA2?$AA?$AA@ 0000000180023b80     libvcruntime:winapi_downlevel.obj
 0002:00002b98       ??_C@_1BA@PFFKHIOG@?$AAa?$AAp?$AAi?$AA?9?$AAm?$AAs?$AA?9?$AA?$AA@ 0000000180023b98     libvcruntime:winapi_downlevel.obj
 0002:00002ba8       ??_C@_1BA@IAIFMGEF@?$AAe?$AAx?$AAt?$AA?9?$AAm?$AAs?$AA?9?$AA?$AA@ 0000000180023ba8     libvcruntime:winapi_downlevel.obj
 0002:00002bc0       ??_C@_08KNHFBNJ@FlsAlloc?$AA@ 0000000180023bc0     libvcruntime:winapi_downlevel.obj
 0002:00002bd8       ??_C@_07PEJMOBNF@FlsFree?$AA@ 0000000180023bd8     libvcruntime:winapi_downlevel.obj
 0002:00002be8       ??_C@_0M@GDNOONDI@FlsGetValue?$AA@ 0000000180023be8     libvcruntime:winapi_downlevel.obj
 0002:00002c00       ??_C@_0M@JCPCPOEF@FlsSetValue?$AA@ 0000000180023c00     libvcruntime:winapi_downlevel.obj
 0002:00002c18       ??_C@_0BM@HCFOFFN@InitializeCriticalSectionEx?$AA@ 0000000180023c18     libvcruntime:winapi_downlevel.obj
 0002:00002c38       _pDestructExceptionObject  0000000180023c38     libvcruntime:ehhelpers.obj
 0002:00002c80       __acrt_exception_action_table 0000000180023c80     libucrt:exception_filter.obj
 0002:00002d40       __acrt_signal_action_table_count 0000000180023d40     libucrt:exception_filter.obj
 0002:00002d48       __acrt_signal_action_first_fpe_index 0000000180023d48     libucrt:exception_filter.obj
 0002:00002d50       __acrt_signal_action_fpe_count 0000000180023d50     libucrt:exception_filter.obj
 0002:00002d58       ??_C@_1BI@BGOHAHKC@?$AAm?$AAs?$AAc?$AAo?$AAr?$AAe?$AAe?$AA?4?$AAd?$AAl?$AAl?$AA?$AA@ 0000000180023d58     libucrt:exit.obj
 0002:00002d70       ??_C@_0P@MIGLKIOC@CorExitProcess?$AA@ 0000000180023d70     libucrt:exit.obj
 0002:00002fe0       __newctype                 0000000180023fe0     libucrt:ctype.obj
 0002:000032e0       __newclmap                 00000001800242e0     libucrt:ctype.obj
 0002:00003460       __newcumap                 0000000180024460     libucrt:ctype.obj
 0002:000035e0       __lc_time_c                00000001800245e0     libucrt:nlsdata.obj
 0002:000038a0       ??_C@_03KOEHGMDN@Sun?$AA@  00000001800248a0     libucrt:nlsdata.obj
 0002:000038a4       ??_C@_03PDAGKDH@Mon?$AA@   00000001800248a4     libucrt:nlsdata.obj
 0002:000038a8       ??_C@_03NAGEINEP@Tue?$AA@  00000001800248a8     libucrt:nlsdata.obj
 0002:000038ac       ??_C@_03MHOMLAJA@Wed?$AA@  00000001800248ac     libucrt:nlsdata.obj
 0002:000038b0       ??_C@_03IOFIKPDN@Thu?$AA@  00000001800248b0     libucrt:nlsdata.obj
 0002:000038b4       ??_C@_03IDIOELNC@Fri?$AA@  00000001800248b4     libucrt:nlsdata.obj
 0002:000038b8       ??_C@_03FEFJNEK@Sat?$AA@   00000001800248b8     libucrt:nlsdata.obj
 0002:000038bc       ??_C@_06OOPIFAJ@Sunday?$AA@ 00000001800248bc     libucrt:nlsdata.obj
 0002:000038c4       ??_C@_06JLEDEDGH@Monday?$AA@ 00000001800248c4     libucrt:nlsdata.obj
 0002:000038d0       ??_C@_07BAAGCFCM@Tuesday?$AA@ 00000001800248d0     libucrt:nlsdata.obj
 0002:000038d8       ??_C@_09DLIGFAKA@Wednesday?$AA@ 00000001800248d8     libucrt:nlsdata.obj
 0002:000038e8       ??_C@_08HACCIKIA@Thursday?$AA@ 00000001800248e8     libucrt:nlsdata.obj
 0002:000038f4       ??_C@_06JECMNKMI@Friday?$AA@ 00000001800248f4     libucrt:nlsdata.obj
 0002:00003900       ??_C@_08INBOOONO@Saturday?$AA@ 0000000180024900     libucrt:nlsdata.obj
 0002:0000390c       ??_C@_03JIHJHPIE@Jan?$AA@  000000018002490c     libucrt:nlsdata.obj
 0002:00003910       ??_C@_03HJBDCHOM@Feb?$AA@  0000000180024910     libucrt:nlsdata.obj
 0002:00003914       ??_C@_03ODNJBKGA@Mar?$AA@  0000000180024914     libucrt:nlsdata.obj
 0002:00003918       ??_C@_03LEOLGMJP@Apr?$AA@  0000000180024918     libucrt:nlsdata.obj
 0002:0000391c       ??_C@_03CNMDKL@May?$AA@    000000018002491c     libucrt:nlsdata.obj
 0002:00003920       ??_C@_03IDFGHECI@Jun?$AA@  0000000180024920     libucrt:nlsdata.obj
 0002:00003924       ??_C@_03LBGABGKK@Jul?$AA@  0000000180024924     libucrt:nlsdata.obj
 0002:00003928       ??_C@_03IFJFEIGA@Aug?$AA@  0000000180024928     libucrt:nlsdata.obj
 0002:0000392c       ??_C@_03GGCAPAJC@Sep?$AA@  000000018002492c     libucrt:nlsdata.obj
 0002:00003930       ??_C@_03BMAOKBAD@Oct?$AA@  0000000180024930     libucrt:nlsdata.obj
 0002:00003934       ??_C@_03JPJOFNIA@Nov?$AA@  0000000180024934     libucrt:nlsdata.obj
 0002:00003938       ??_C@_03MKABNOCG@Dec?$AA@  0000000180024938     libucrt:nlsdata.obj
 0002:00003940       ??_C@_07CGJPFGJA@January?$AA@ 0000000180024940     libucrt:nlsdata.obj
 0002:00003948       ??_C@_08GNJGEPFN@February?$AA@ 0000000180024948     libucrt:nlsdata.obj
 0002:00003954       ??_C@_05HPCKOFNC@March?$AA@ 0000000180024954     libucrt:nlsdata.obj
 0002:0000395c       ??_C@_05DMJDNLEJ@April?$AA@ 000000018002495c     libucrt:nlsdata.obj
 0002:00003964       ??_C@_04CNLMGBGM@June?$AA@ 0000000180024964     libucrt:nlsdata.obj
 0002:0000396c       ??_C@_04MIEPOIFP@July?$AA@ 000000018002496c     libucrt:nlsdata.obj
 0002:00003974       ??_C@_06LBBHFDDG@August?$AA@ 0000000180024974     libucrt:nlsdata.obj
 0002:00003980       ??_C@_09BHHEALKD@September?$AA@ 0000000180024980     libucrt:nlsdata.obj
 0002:00003990       ??_C@_07JJNFCEND@October?$AA@ 0000000180024990     libucrt:nlsdata.obj
 0002:00003998       ??_C@_08HCHEGEOA@November?$AA@ 0000000180024998     libucrt:nlsdata.obj
 0002:000039a8       ??_C@_08EDHMEBNP@December?$AA@ 00000001800249a8     libucrt:nlsdata.obj
 0002:000039b4       ??_C@_02DEDBPAFC@AM?$AA@   00000001800249b4     libucrt:nlsdata.obj
 0002:000039b8       ??_C@_02CJNFDJBF@PM?$AA@   00000001800249b8     libucrt:nlsdata.obj
 0002:000039c0       ??_C@_08BPBNCDIB@MM?1dd?1yy?$AA@ 00000001800249c0     libucrt:nlsdata.obj
 0002:000039d0       ??_C@_0BE@CKGJFCPC@dddd?0?5MMMM?5dd?0?5yyyy?$AA@ 00000001800249d0     libucrt:nlsdata.obj
 0002:000039e8       ??_C@_08JCCMCCIL@HH?3mm?3ss?$AA@ 00000001800249e8     libucrt:nlsdata.obj
 0002:000039f8       ??_C@_17MBGCMIPB@?$AAS?$AAu?$AAn?$AA?$AA@ 00000001800249f8     libucrt:nlsdata.obj
 0002:00003a00       ??_C@_17KBOMKBF@?$AAM?$AAo?$AAn?$AA?$AA@ 0000000180024a00     libucrt:nlsdata.obj
 0002:00003a08       ??_C@_17BMKGEGOJ@?$AAT?$AAu?$AAe?$AA?$AA@ 0000000180024a08     libucrt:nlsdata.obj
 0002:00003a10       ??_C@_17CJEDCEPE@?$AAW?$AAe?$AAd?$AA?$AA@ 0000000180024a10     libucrt:nlsdata.obj
 0002:00003a18       ??_C@_17PDPHAADD@?$AAT?$AAh?$AAu?$AA?$AA@ 0000000180024a18     libucrt:nlsdata.obj
 0002:00003a20       ??_C@_17HFOLPPLP@?$AAF?$AAr?$AAi?$AA?$AA@ 0000000180024a20     libucrt:nlsdata.obj
 0002:00003a28       ??_C@_17GGIBDPIH@?$AAS?$AAa?$AAt?$AA?$AA@ 0000000180024a28     libucrt:nlsdata.obj
 0002:00003a30       ??_C@_1O@IHNHDHPB@?$AAS?$AAu?$AAn?$AAd?$AAa?$AAy?$AA?$AA@ 0000000180024a30     libucrt:nlsdata.obj
 0002:00003a40       ??_C@_1O@MMNBFLIA@?$AAM?$AAo?$AAn?$AAd?$AAa?$AAy?$AA?$AA@ 0000000180024a40     libucrt:nlsdata.obj
 0002:00003a50       ??_C@_1BA@ENFBFFEK@?$AAT?$AAu?$AAe?$AAs?$AAd?$AAa?$AAy?$AA?$AA@ 0000000180024a50     libucrt:nlsdata.obj
 0002:00003a60       ??_C@_1BE@EBOGMDOH@?$AAW?$AAe?$AAd?$AAn?$AAe?$AAs?$AAd?$AAa?$AAy?$AA?$AA@ 0000000180024a60     libucrt:nlsdata.obj
 0002:00003a78       ??_C@_1BC@HHMNLIHE@?$AAT?$AAh?$AAu?$AAr?$AAs?$AAd?$AAa?$AAy?$AA?$AA@ 0000000180024a78     libucrt:nlsdata.obj
 0002:00003a90       ??_C@_1O@PDICJHAG@?$AAF?$AAr?$AAi?$AAd?$AAa?$AAy?$AA?$AA@ 0000000180024a90     libucrt:nlsdata.obj
 0002:00003aa0       ??_C@_1BC@ENMNNPAJ@?$AAS?$AAa?$AAt?$AAu?$AAr?$AAd?$AAa?$AAy?$AA?$AA@ 0000000180024aa0     libucrt:nlsdata.obj
 0002:00003ab8       ??_C@_17DKNBKCHM@?$AAJ?$AAa?$AAn?$AA?$AA@ 0000000180024ab8     libucrt:nlsdata.obj
 0002:00003ac0       ??_C@_17LMDJEKJN@?$AAF?$AAe?$AAb?$AA?$AA@ 0000000180024ac0     libucrt:nlsdata.obj
 0002:00003ac8       ??_C@_17CKNLEDEC@?$AAM?$AAa?$AAr?$AA?$AA@ 0000000180024ac8     libucrt:nlsdata.obj
 0002:00003ad0       ??_C@_17LFPOIHDD@?$AAA?$AAp?$AAr?$AA?$AA@ 0000000180024ad0     libucrt:nlsdata.obj
 0002:00003ad8       ??_C@_17PNNKMEED@?$AAM?$AAa?$AAy?$AA?$AA@ 0000000180024ad8     libucrt:nlsdata.obj
 0002:00003ae0       ??_C@_17KCJGOCPB@?$AAJ?$AAu?$AAn?$AA?$AA@ 0000000180024ae0     libucrt:nlsdata.obj
 0002:00003ae8       ??_C@_17IJPCKHK@?$AAJ?$AAu?$AAl?$AA?$AA@ 0000000180024ae8     libucrt:nlsdata.obj
 0002:00003af0       ??_C@_17ICPELBCN@?$AAA?$AAu?$AAg?$AA?$AA@ 0000000180024af0     libucrt:nlsdata.obj
 0002:00003af8       ??_C@_17HCHCOKMG@?$AAS?$AAe?$AAp?$AA?$AA@ 0000000180024af8     libucrt:nlsdata.obj
 0002:00003b00       ??_C@_17FNLKOI@?$AAO?$AAc?$AAt?$AA?$AA@ 0000000180024b00     libucrt:nlsdata.obj
 0002:00003b08       ??_C@_17BBDMLCIG@?$AAN?$AAo?$AAv?$AA?$AA@ 0000000180024b08     libucrt:nlsdata.obj
 0002:00003b10       ??_C@_17EGKACKIF@?$AAD?$AAe?$AAc?$AA?$AA@ 0000000180024b10     libucrt:nlsdata.obj
 0002:00003b18       ??_C@_1BA@EFMEIEBA@?$AAJ?$AAa?$AAn?$AAu?$AAa?$AAr?$AAy?$AA?$AA@ 0000000180024b18     libucrt:nlsdata.obj
 0002:00003b28       ??_C@_1BC@JGDDFFAM@?$AAF?$AAe?$AAb?$AAr?$AAu?$AAa?$AAr?$AAy?$AA?$AA@ 0000000180024b28     libucrt:nlsdata.obj
 0002:00003b40       ??_C@_1M@IKEENEDF@?$AAM?$AAa?$AAr?$AAc?$AAh?$AA?$AA@ 0000000180024b40     libucrt:nlsdata.obj
 0002:00003b50       ??_C@_1M@GJNLMHFD@?$AAA?$AAp?$AAr?$AAi?$AAl?$AA?$AA@ 0000000180024b50     libucrt:nlsdata.obj
 0002:00003b60       ??_C@_19EPFLPGAP@?$AAJ?$AAu?$AAn?$AAe?$AA?$AA@ 0000000180024b60     libucrt:nlsdata.obj
 0002:00003b70       ??_C@_19BIFMLPCD@?$AAJ?$AAu?$AAl?$AAy?$AA?$AA@ 0000000180024b70     libucrt:nlsdata.obj
 0002:00003b80       ??_C@_1O@PAHLKOAC@?$AAA?$AAu?$AAg?$AAu?$AAs?$AAt?$AA?$AA@ 0000000180024b80     libucrt:nlsdata.obj
 0002:00003b90       ??_C@_1BE@DKAAMBJL@?$AAS?$AAe?$AAp?$AAt?$AAe?$AAm?$AAb?$AAe?$AAr?$AA?$AA@ 0000000180024b90     libucrt:nlsdata.obj
 0002:00003ba8       ??_C@_1BA@EPANDLNG@?$AAO?$AAc?$AAt?$AAo?$AAb?$AAe?$AAr?$AA?$AA@ 0000000180024ba8     libucrt:nlsdata.obj
 0002:00003bb8       ??_C@_1BC@BGLIFPF@?$AAN?$AAo?$AAv?$AAe?$AAm?$AAb?$AAe?$AAr?$AA?$AA@ 0000000180024bb8     libucrt:nlsdata.obj
 0002:00003bd0       ??_C@_1BC@FEMKIFH@?$AAD?$AAe?$AAc?$AAe?$AAm?$AAb?$AAe?$AAr?$AA?$AA@ 0000000180024bd0     libucrt:nlsdata.obj
 0002:00003be4       ??_C@_15ODEHAHHF@?$AAA?$AAM?$AA?$AA@ 0000000180024be4     libucrt:nlsdata.obj
 0002:00003bec       ??_C@_15CLMNNGEL@?$AAP?$AAM?$AA?$AA@ 0000000180024bec     libucrt:nlsdata.obj
 0002:00003bf8       ??_C@_1BC@IEBCMHCM@?$AAM?$AAM?$AA?1?$AAd?$AAd?$AA?1?$AAy?$AAy?$AA?$AA@ 0000000180024bf8     libucrt:nlsdata.obj
 0002:00003c10       ??_C@_1CI@KNAKOEBC@?$AAd?$AAd?$AAd?$AAd?$AA?0?$AA?5?$AAM?$AAM?$AAM?$AAM?$AA?5?$AAd?$AAd?$AA?0?$AA?5?$AAy?$AAy?$AAy?$AAy?$AA?$AA@ 0000000180024c10     libucrt:nlsdata.obj
 0002:00003c38       ??_C@_1BC@GDGBMEMK@?$AAH?$AAH?$AA?3?$AAm?$AAm?$AA?3?$AAs?$AAs?$AA?$AA@ 0000000180024c38     libucrt:nlsdata.obj
 0002:00003c50       ??_C@_1M@BMHNFIME@?$AAe?$AAn?$AA?9?$AAU?$AAS?$AA?$AA@ 0000000180024c50     libucrt:nlsdata.obj
 0002:00003d00       ??_C@_1EG@CNNIPFIM@?$AAa?$AAp?$AAi?$AA?9?$AAm?$AAs?$AA?9?$AAw?$AAi?$AAn?$AA?9?$AAa?$AAp?$AAp?$AAm?$AAo?$AAd?$AAe?$AAl?$AA?9?$AAr?$AAu?$AAn?$AAt?$AAi?$AAm?$AAe?$AA?9?$AAl?$AA1?$AA?9?$AA1@ 0000000180024d00     libucrt:winapi_thunks.obj
 0002:00003d50       ??_C@_1EA@JGEFHKEI@?$AAa?$AAp?$AAi?$AA?9?$AAm?$AAs?$AA?9?$AAw?$AAi?$AAn?$AA?9?$AAc?$AAo?$AAr?$AAe?$AA?9?$AAd?$AAa?$AAt?$AAe?$AAt?$AAi?$AAm?$AAe?$AA?9?$AAl?$AA1?$AA?9?$AA1?$AA?9?$AA1?$AA?$AA@ 0000000180024d50     libucrt:winapi_thunks.obj
 0002:00003d90       ??_C@_1DI@GCIAAENM@?$AAa?$AAp?$AAi?$AA?9?$AAm?$AAs?$AA?9?$AAw?$AAi?$AAn?$AA?9?$AAc?$AAo?$AAr?$AAe?$AA?9?$AAf?$AAi?$AAl?$AAe?$AA?9?$AAl?$AA2?$AA?9?$AA1?$AA?9?$AA1?$AA?$AA@ 0000000180024d90     libucrt:winapi_thunks.obj
 0002:00003dd0       ??_C@_1EI@MPIAOHOC@?$AAa?$AAp?$AAi?$AA?9?$AAm?$AAs?$AA?9?$AAw?$AAi?$AAn?$AA?9?$AAc?$AAo?$AAr?$AAe?$AA?9?$AAl?$AAo?$AAc?$AAa?$AAl?$AAi?$AAz?$AAa?$AAt?$AAi?$AAo?$AAn?$AA?9?$AAl?$AA1?$AA?9@ 0000000180024dd0     libucrt:winapi_thunks.obj
 0002:00003e20       ??_C@_1FK@FPHCKFIE@?$AAa?$AAp?$AAi?$AA?9?$AAm?$AAs?$AA?9?$AAw?$AAi?$AAn?$AA?9?$AAc?$AAo?$AAr?$AAe?$AA?9?$AAl?$AAo?$AAc?$AAa?$AAl?$AAi?$AAz?$AAa?$AAt?$AAi?$AAo?$AAn?$AA?9?$AAo?$AAb?$AAs@ 0000000180024e20     libucrt:winapi_thunks.obj
 0002:00003e80       ??_C@_1EM@DILCGIIO@?$AAa?$AAp?$AAi?$AA?9?$AAm?$AAs?$AA?9?$AAw?$AAi?$AAn?$AA?9?$AAc?$AAo?$AAr?$AAe?$AA?9?$AAp?$AAr?$AAo?$AAc?$AAe?$AAs?$AAs?$AAt?$AAh?$AAr?$AAe?$AAa?$AAd?$AAs?$AA?9?$AAl@ 0000000180024e80     libucrt:winapi_thunks.obj
 0002:00003ed0       ??_C@_1DM@LNCGDDPN@?$AAa?$AAp?$AAi?$AA?9?$AAm?$AAs?$AA?9?$AAw?$AAi?$AAn?$AA?9?$AAc?$AAo?$AAr?$AAe?$AA?9?$AAs?$AAt?$AAr?$AAi?$AAn?$AAg?$AA?9?$AAl?$AA1?$AA?9?$AA1?$AA?9?$AA0?$AA?$AA@ 0000000180024ed0     libucrt:winapi_thunks.obj
 0002:00003f10       ??_C@_1DO@FPAPJEMD@?$AAa?$AAp?$AAi?$AA?9?$AAm?$AAs?$AA?9?$AAw?$AAi?$AAn?$AA?9?$AAc?$AAo?$AAr?$AAe?$AA?9?$AAs?$AAy?$AAs?$AAi?$AAn?$AAf?$AAo?$AA?9?$AAl?$AA1?$AA?9?$AA2?$AA?9?$AA1?$AA?$AA@ 0000000180024f10     libucrt:winapi_thunks.obj
 0002:00003f50       ??_C@_1DK@NDHNAHIO@?$AAa?$AAp?$AAi?$AA?9?$AAm?$AAs?$AA?9?$AAw?$AAi?$AAn?$AA?9?$AAc?$AAo?$AAr?$AAe?$AA?9?$AAw?$AAi?$AAn?$AAr?$AAt?$AA?9?$AAl?$AA1?$AA?9?$AA1?$AA?9?$AA0?$AA?$AA@ 0000000180024f50     libucrt:winapi_thunks.obj
 0002:00003f90       ??_C@_1DM@KGHDGBCM@?$AAa?$AAp?$AAi?$AA?9?$AAm?$AAs?$AA?9?$AAw?$AAi?$AAn?$AA?9?$AAc?$AAo?$AAr?$AAe?$AA?9?$AAx?$AAs?$AAt?$AAa?$AAt?$AAe?$AA?9?$AAl?$AA2?$AA?9?$AA1?$AA?9?$AA0?$AA?$AA@ 0000000180024f90     libucrt:winapi_thunks.obj
 0002:00003fd0       ??_C@_1EO@IJIOEFOH@?$AAa?$AAp?$AAi?$AA?9?$AAm?$AAs?$AA?9?$AAw?$AAi?$AAn?$AA?9?$AAr?$AAt?$AAc?$AAo?$AAr?$AAe?$AA?9?$AAn?$AAt?$AAu?$AAs?$AAe?$AAr?$AA?9?$AAw?$AAi?$AAn?$AAd?$AAo?$AAw?$AA?9@ 0000000180024fd0     libucrt:winapi_thunks.obj
 0002:00004020       ??_C@_1FG@HHGEKANL@?$AAa?$AAp?$AAi?$AA?9?$AAm?$AAs?$AA?9?$AAw?$AAi?$AAn?$AA?9?$AAs?$AAe?$AAc?$AAu?$AAr?$AAi?$AAt?$AAy?$AA?9?$AAs?$AAy?$AAs?$AAt?$AAe?$AAm?$AAf?$AAu?$AAn?$AAc?$AAt?$AAi@ 0000000180025020     libucrt:winapi_thunks.obj
 0002:00004080       ??_C@_1FG@NCKKOLKO@?$AAe?$AAx?$AAt?$AA?9?$AAm?$AAs?$AA?9?$AAw?$AAi?$AAn?$AA?9?$AAk?$AAe?$AAr?$AAn?$AAe?$AAl?$AA3?$AA2?$AA?9?$AAp?$AAa?$AAc?$AAk?$AAa?$AAg?$AAe?$AA?9?$AAc?$AAu?$AAr?$AAr@ 0000000180025080     libucrt:winapi_thunks.obj
 0002:000040e0       ??_C@_1EG@DBIOJECG@?$AAe?$AAx?$AAt?$AA?9?$AAm?$AAs?$AA?9?$AAw?$AAi?$AAn?$AA?9?$AAn?$AAt?$AAu?$AAs?$AAe?$AAr?$AA?9?$AAd?$AAi?$AAa?$AAl?$AAo?$AAg?$AAb?$AAo?$AAx?$AA?9?$AAl?$AA1?$AA?9?$AA1@ 00000001800250e0     libucrt:winapi_thunks.obj
 0002:00004130       ??_C@_1EO@FIHMJCLF@?$AAe?$AAx?$AAt?$AA?9?$AAm?$AAs?$AA?9?$AAw?$AAi?$AAn?$AA?9?$AAn?$AAt?$AAu?$AAs?$AAe?$AAr?$AA?9?$AAw?$AAi?$AAn?$AAd?$AAo?$AAw?$AAs?$AAt?$AAa?$AAt?$AAi?$AAo?$AAn?$AA?9@ 0000000180025130     libucrt:winapi_thunks.obj
 0002:00004180       ??_C@_1BC@DNHGCMLG@?$AAa?$AAd?$AAv?$AAa?$AAp?$AAi?$AA3?$AA2?$AA?$AA@ 0000000180025180     libucrt:winapi_thunks.obj
 0002:00004198       ??_C@_1O@BCCLBEOE@?$AAu?$AAs?$AAe?$AAr?$AA3?$AA2?$AA?$AA@ 0000000180025198     libucrt:winapi_thunks.obj
 0002:000041d0       ??_C@_0BE@JOGNEJCI@GetCurrentPackageId?$AA@ 00000001800251d0     libucrt:winapi_thunks.obj
 0002:000041f8       ??_C@_0O@KKBNKAPF@LCMapStringEx?$AA@ 00000001800251f8     libucrt:winapi_thunks.obj
 0002:00004210       ??_C@_0BB@HBDEELFH@LocaleNameToLCID?$AA@ 0000000180025210     libucrt:winapi_thunks.obj
 0002:00004248       ??_C@_1M@HPNHIDJI@?$AAj?$AAa?$AA?9?$AAJ?$AAP?$AA?$AA@ 0000000180025248     libucrt:mbctype.obj
 0002:00004258       ??_C@_1M@BIBDDEMK@?$AAz?$AAh?$AA?9?$AAC?$AAN?$AA?$AA@ 0000000180025258     libucrt:mbctype.obj
 0002:00004268       ??_C@_1M@JLOOOEGK@?$AAk?$AAo?$AA?9?$AAK?$AAR?$AA?$AA@ 0000000180025268     libucrt:mbctype.obj
 0002:00004278       ??_C@_1M@CLNBBOPM@?$AAz?$AAh?$AA?9?$AAT?$AAW?$AA?$AA@ 0000000180025278     libucrt:mbctype.obj
 0002:00004284       ??_C@_15PJPFLCCM@?$AAu?$AAk?$AA?$AA@ 0000000180025284     libucrt:get_qualified_locale.obj
 0002:000050d0       ??_C@_15EMKDOKLE@?$AAa?$AAr?$AA?$AA@ 00000001800260d0     libucrt:lcidtoname_downlevel.obj
 0002:000050d8       ??_C@_15KNPADPLH@?$AAb?$AAg?$AA?$AA@ 00000001800260d8     libucrt:lcidtoname_downlevel.obj
 0002:000050e0       ??_C@_15EDMHLDMO@?$AAc?$AAa?$AA?$AA@ 00000001800260e0     libucrt:lcidtoname_downlevel.obj
 0002:000050e8       ??_C@_1O@BPEAJADD@?$AAz?$AAh?$AA?9?$AAC?$AAH?$AAS?$AA?$AA@ 00000001800260e8     libucrt:lcidtoname_downlevel.obj
 0002:000050f8       ??_C@_15LJNHCMNK@?$AAc?$AAs?$AA?$AA@ 00000001800260f8     libucrt:lcidtoname_downlevel.obj
 0002:00005100       ??_C@_15FOMCIDHG@?$AAd?$AAa?$AA?$AA@ 0000000180026100     libucrt:lcidtoname_downlevel.obj
 0002:00005108       ??_C@_15NBKABECB@?$AAd?$AAe?$AA?$AA@ 0000000180026108     libucrt:lcidtoname_downlevel.obj
 0002:00005110       ??_C@_15GHPEIIAO@?$AAe?$AAl?$AA?$AA@ 0000000180026110     libucrt:lcidtoname_downlevel.obj
 0002:00005118       ??_C@_15MNPNEAIF@?$AAe?$AAn?$AA?$AA@ 0000000180026118     libucrt:lcidtoname_downlevel.obj
 0002:00005120       ??_C@_15GPIOMPMH@?$AAe?$AAs?$AA?$AA@ 0000000180026120     libucrt:lcidtoname_downlevel.obj
 0002:00005128       ??_C@_15NGLOAKJC@?$AAf?$AAi?$AA?$AA@ 0000000180026128     libucrt:lcidtoname_downlevel.obj
 0002:00005130       ??_C@_15FBKGNKAM@?$AAf?$AAr?$AA?$AA@ 0000000180026130     libucrt:lcidtoname_downlevel.obj
 0002:00005138       ??_C@_15KGGCNEFK@?$AAh?$AAe?$AA?$AA@ 0000000180026138     libucrt:lcidtoname_downlevel.obj
 0002:00005140       ??_C@_15PGHLIDMF@?$AAh?$AAu?$AA?$AA@ 0000000180026140     libucrt:lcidtoname_downlevel.obj
 0002:00005148       ??_C@_15BIEMAPLM@?$AAi?$AAs?$AA?$AA@ 0000000180026148     libucrt:lcidtoname_downlevel.obj
 0002:00005150       ??_C@_15IFJLDHAF@?$AAi?$AAt?$AA?$AA@ 0000000180026150     libucrt:lcidtoname_downlevel.obj
 0002:00005158       ??_C@_15GEMIOCAG@?$AAj?$AAa?$AA?$AA@ 0000000180026158     libucrt:lcidtoname_downlevel.obj
 0002:00005160       ??_C@_15EPELEGJA@?$AAk?$AAo?$AA?$AA@ 0000000180026160     libucrt:lcidtoname_downlevel.obj
 0002:00005168       ??_C@_15NDDHIMN@?$AAn?$AAl?$AA?$AA@ 0000000180026168     libucrt:lcidtoname_downlevel.obj
 0002:00005170       ??_C@_15BPIGNHCD@?$AAn?$AAo?$AA?$AA@ 0000000180026170     libucrt:lcidtoname_downlevel.obj
 0002:00005178       ??_C@_15DEOPBLCG@?$AAp?$AAl?$AA?$AA@ 0000000180026178     libucrt:lcidtoname_downlevel.obj
 0002:00005180       ??_C@_15KBECGEFG@?$AAp?$AAt?$AA?$AA@ 0000000180026180     libucrt:lcidtoname_downlevel.obj
 0002:00005188       ??_C@_15GLJCBFMD@?$AAr?$AAo?$AA?$AA@ 0000000180026188     libucrt:lcidtoname_downlevel.obj
 0002:00005190       ??_C@_15FEDGKCDI@?$AAr?$AAu?$AA?$AA@ 0000000180026190     libucrt:lcidtoname_downlevel.obj
 0002:00005198       ??_C@_15GLKMLLHM@?$AAh?$AAr?$AA?$AA@ 0000000180026198     libucrt:lcidtoname_downlevel.obj
 0002:000051a0       ??_C@_15CPKMFBDB@?$AAs?$AAk?$AA?$AA@ 00000001800261a0     libucrt:lcidtoname_downlevel.obj
 0002:000051a8       ??_C@_15BAAIOGMK@?$AAs?$AAq?$AA?$AA@ 00000001800261a8     libucrt:lcidtoname_downlevel.obj
 0002:000051b0       ??_C@_15INNPNOHD@?$AAs?$AAv?$AA?$AA@ 00000001800261b0     libucrt:lcidtoname_downlevel.obj
 0002:000051b8       ??_C@_15CABMMOGH@?$AAt?$AAh?$AA?$AA@ 00000001800261b8     libucrt:lcidtoname_downlevel.obj
 0002:000051c0       ??_C@_15BPLIHJJM@?$AAt?$AAr?$AA?$AA@ 00000001800261c0     libucrt:lcidtoname_downlevel.obj
 0002:000051c8       ??_C@_15NEOEKKDJ@?$AAu?$AAr?$AA?$AA@ 00000001800261c8     libucrt:lcidtoname_downlevel.obj
 0002:000051d0       ??_C@_15NFICGAJK@?$AAi?$AAd?$AA?$AA@ 00000001800261d0     libucrt:lcidtoname_downlevel.obj
 0002:000051d8       ??_C@_15HPJPHDM@?$AAb?$AAe?$AA?$AA@ 00000001800261d8     libucrt:lcidtoname_downlevel.obj
 0002:000051e0       ??_C@_15LCHLGJII@?$AAs?$AAl?$AA?$AA@ 00000001800261e0     libucrt:lcidtoname_downlevel.obj
 0002:000051e8       ??_C@_15PCFJPHHO@?$AAe?$AAt?$AA?$AA@ 00000001800261e8     libucrt:lcidtoname_downlevel.obj
 0002:000051f0       ??_C@_15HPFPGODN@?$AAl?$AAv?$AA?$AA@ 00000001800261f0     libucrt:lcidtoname_downlevel.obj
 0002:000051f8       ??_C@_15NFFGKGLG@?$AAl?$AAt?$AA?$AA@ 00000001800261f8     libucrt:lcidtoname_downlevel.obj
 0002:00005200       ??_C@_15BDAKCCHN@?$AAf?$AAa?$AA?$AA@ 0000000180026200     libucrt:lcidtoname_downlevel.obj
 0002:00005208       ??_C@_15NFGIAIAJ@?$AAv?$AAi?$AA?$AA@ 0000000180026208     libucrt:lcidtoname_downlevel.obj
 0002:00005210       ??_C@_15LMKNDMHN@?$AAh?$AAy?$AA?$AA@ 0000000180026210     libucrt:lcidtoname_downlevel.obj
 0002:00005218       ??_C@_15IJBHMCFL@?$AAa?$AAz?$AA?$AA@ 0000000180026218     libucrt:lcidtoname_downlevel.obj
 0002:00005220       ??_C@_15EKOFJABL@?$AAe?$AAu?$AA?$AA@ 0000000180026220     libucrt:lcidtoname_downlevel.obj
 0002:00005228       ??_C@_15BGHADCNK@?$AAm?$AAk?$AA?$AA@ 0000000180026228     libucrt:lcidtoname_downlevel.obj
 0002:00005230       ??_C@_15JDNICKHM@?$AAa?$AAf?$AA?$AA@ 0000000180026230     libucrt:lcidtoname_downlevel.obj
 0002:00005238       ??_C@_15KPJEDBKD@?$AAk?$AAa?$AA?$AA@ 0000000180026238     libucrt:lcidtoname_downlevel.obj
 0002:00005240       ??_C@_15PDNFFFEO@?$AAf?$AAo?$AA?$AA@ 0000000180026240     libucrt:lcidtoname_downlevel.obj
 0002:00005248       ??_C@_15OMLEGLOC@?$AAh?$AAi?$AA?$AA@ 0000000180026248     libucrt:lcidtoname_downlevel.obj
 0002:00005250       ??_C@_15IDNNENKK@?$AAm?$AAs?$AA?$AA@ 0000000180026250     libucrt:lcidtoname_downlevel.obj
 0002:00005258       ??_C@_15MACJNBMH@?$AAk?$AAk?$AA?$AA@ 0000000180026258     libucrt:lcidtoname_downlevel.obj
 0002:00005260       ??_C@_15DKDJEOND@?$AAk?$AAy?$AA?$AA@ 0000000180026260     libucrt:lcidtoname_downlevel.obj
 0002:00005268       ??_C@_15DFGDLJBG@?$AAs?$AAw?$AA?$AA@ 0000000180026268     libucrt:lcidtoname_downlevel.obj
 0002:00005270       ??_C@_15BBFAICNG@?$AAu?$AAz?$AA?$AA@ 0000000180026270     libucrt:lcidtoname_downlevel.obj
 0002:00005278       ??_C@_15DKNDCGEA@?$AAt?$AAt?$AA?$AA@ 0000000180026278     libucrt:lcidtoname_downlevel.obj
 0002:00005280       ??_C@_15MGIFMDPL@?$AAp?$AAa?$AA?$AA@ 0000000180026280     libucrt:lcidtoname_downlevel.obj
 0002:00005288       ??_C@_15HCNDBBA@?$AAg?$AAu?$AA?$AA@ 0000000180026288     libucrt:lcidtoname_downlevel.obj
 0002:00005290       ??_C@_15FNBEIBON@?$AAt?$AAa?$AA?$AA@ 0000000180026290     libucrt:lcidtoname_downlevel.obj
 0002:00005298       ??_C@_15NCHGBGLK@?$AAt?$AAe?$AA?$AA@ 0000000180026298     libucrt:lcidtoname_downlevel.obj
 0002:000052a0       ??_C@_15PHPHCBPF@?$AAk?$AAn?$AA?$AA@ 00000001800262a0     libucrt:lcidtoname_downlevel.obj
 0002:000052a8       ??_C@_15DLGBCKMP@?$AAm?$AAr?$AA?$AA@ 00000001800262a8     libucrt:lcidtoname_downlevel.obj
 0002:000052b0       ??_C@_15EABBLBFF@?$AAs?$AAa?$AA?$AA@ 00000001800262b0     libucrt:lcidtoname_downlevel.obj
 0002:000052b8       ??_C@_15CBKOMCOI@?$AAm?$AAn?$AA?$AA@ 00000001800262b8     libucrt:lcidtoname_downlevel.obj
 0002:000052c0       ??_C@_15CKDMCJAF@?$AAg?$AAl?$AA?$AA@ 00000001800262c0     libucrt:lcidtoname_downlevel.obj
 0002:000052c8       ??_C@_17CNJFBPG@?$AAk?$AAo?$AAk?$AA?$AA@ 00000001800262c8     libucrt:lcidtoname_downlevel.obj
 0002:000052d0       ??_C@_17FFBJICPL@?$AAs?$AAy?$AAr?$AA?$AA@ 00000001800262d0     libucrt:lcidtoname_downlevel.obj
 0002:000052d8       ??_C@_17KPNDCPAF@?$AAd?$AAi?$AAv?$AA?$AA@ 00000001800262d8     libucrt:lcidtoname_downlevel.obj
 0002:000052e0       ??_C@_1M@OKAHONE@?$AAa?$AAr?$AA?9?$AAS?$AAA?$AA?$AA@ 00000001800262e0     libucrt:lcidtoname_downlevel.obj
 0002:000052f0       ??_C@_1M@FFFIGIGK@?$AAb?$AAg?$AA?9?$AAB?$AAG?$AA?$AA@ 00000001800262f0     libucrt:lcidtoname_downlevel.obj
 0002:00005300       ??_C@_1M@BJNKEDC@?$AAc?$AAa?$AA?9?$AAE?$AAS?$AA?$AA@ 0000000180026300     libucrt:lcidtoname_downlevel.obj
 0002:00005310       ??_C@_1M@IJJHFJHA@?$AAc?$AAs?$AA?9?$AAC?$AAZ?$AA?$AA@ 0000000180026310     libucrt:lcidtoname_downlevel.obj
 0002:00005320       ??_C@_1M@CLPEOBGI@?$AAd?$AAa?$AA?9?$AAD?$AAK?$AA?$AA@ 0000000180026320     libucrt:lcidtoname_downlevel.obj
 0002:00005330       ??_C@_1M@MCMADGCB@?$AAd?$AAe?$AA?9?$AAD?$AAE?$AA?$AA@ 0000000180026330     libucrt:lcidtoname_downlevel.obj
 0002:00005340       ??_C@_1M@OOCKEMAM@?$AAe?$AAl?$AA?9?$AAG?$AAR?$AA?$AA@ 0000000180026340     libucrt:lcidtoname_downlevel.obj
 0002:00005350       ??_C@_1M@DDNJFGID@?$AAf?$AAi?$AA?9?$AAF?$AAI?$AA?$AA@ 0000000180026350     libucrt:lcidtoname_downlevel.obj
 0002:00005360       ??_C@_1M@GLIPPMAC@?$AAf?$AAr?$AA?9?$AAF?$AAR?$AA?$AA@ 0000000180026360     libucrt:lcidtoname_downlevel.obj
 0002:00005370       ??_C@_1M@GFMCHPE@?$AAh?$AAe?$AA?9?$AAI?$AAL?$AA?$AA@ 0000000180026370     libucrt:lcidtoname_downlevel.obj
 0002:00005380       ??_C@_1M@MHLPGNKM@?$AAh?$AAu?$AA?9?$AAH?$AAU?$AA?$AA@ 0000000180026380     libucrt:lcidtoname_downlevel.obj
 0002:00005390       ??_C@_1M@LPDDNNPN@?$AAi?$AAs?$AA?9?$AAI?$AAS?$AA?$AA@ 0000000180026390     libucrt:lcidtoname_downlevel.obj
 0002:000053a0       ??_C@_1M@MADIPODN@?$AAi?$AAt?$AA?9?$AAI?$AAT?$AA?$AA@ 00000001800263a0     libucrt:lcidtoname_downlevel.obj
 0002:000053b0       ??_C@_1M@IHBJJGG@?$AAn?$AAl?$AA?9?$AAN?$AAL?$AA?$AA@ 00000001800263b0     libucrt:lcidtoname_downlevel.obj
 0002:000053c0       ??_C@_1M@EANAGDL@?$AAn?$AAb?$AA?9?$AAN?$AAO?$AA?$AA@ 00000001800263c0     libucrt:lcidtoname_downlevel.obj
 0002:000053d0       ??_C@_1M@NEIEMEGP@?$AAp?$AAl?$AA?9?$AAP?$AAL?$AA?$AA@ 00000001800263d0     libucrt:lcidtoname_downlevel.obj
 0002:000053e0       ??_C@_1M@BOCFIGEP@?$AAp?$AAt?$AA?9?$AAB?$AAR?$AA?$AA@ 00000001800263e0     libucrt:lcidtoname_downlevel.obj
 0002:000053f0       ??_C@_1M@IMPFOPBG@?$AAr?$AAo?$AA?9?$AAR?$AAO?$AA?$AA@ 00000001800263f0     libucrt:lcidtoname_downlevel.obj
 0002:00005400       ??_C@_1M@IDNNEJMM@?$AAr?$AAu?$AA?9?$AAR?$AAU?$AA?$AA@ 0000000180026400     libucrt:lcidtoname_downlevel.obj
 0002:00005410       ??_C@_1M@LILEEOGM@?$AAh?$AAr?$AA?9?$AAH?$AAR?$AA?$AA@ 0000000180026410     libucrt:lcidtoname_downlevel.obj
 0002:00005420       ??_C@_1M@FKIFEHPB@?$AAs?$AAk?$AA?9?$AAS?$AAK?$AA?$AA@ 0000000180026420     libucrt:lcidtoname_downlevel.obj
 0002:00005430       ??_C@_1M@LJMAMNPJ@?$AAs?$AAq?$AA?9?$AAA?$AAL?$AA?$AA@ 0000000180026430     libucrt:lcidtoname_downlevel.obj
 0002:00005440       ??_C@_1M@GIAKDKJK@?$AAs?$AAv?$AA?9?$AAS?$AAE?$AA?$AA@ 0000000180026440     libucrt:lcidtoname_downlevel.obj
 0002:00005450       ??_C@_1M@MKJKIKCL@?$AAt?$AAh?$AA?9?$AAT?$AAH?$AA?$AA@ 0000000180026450     libucrt:lcidtoname_downlevel.obj
 0002:00005460       ??_C@_1M@MFLCCMPB@?$AAt?$AAr?$AA?9?$AAT?$AAR?$AA?$AA@ 0000000180026460     libucrt:lcidtoname_downlevel.obj
 0002:00005470       ??_C@_1M@OIJHDKJN@?$AAu?$AAr?$AA?9?$AAP?$AAK?$AA?$AA@ 0000000180026470     libucrt:lcidtoname_downlevel.obj
 0002:00005480       ??_C@_1M@LHIPCIEK@?$AAi?$AAd?$AA?9?$AAI?$AAD?$AA?$AA@ 0000000180026480     libucrt:lcidtoname_downlevel.obj
 0002:00005490       ??_C@_1M@MFMOBGI@?$AAu?$AAk?$AA?9?$AAU?$AAA?$AA?$AA@ 0000000180026490     libucrt:lcidtoname_downlevel.obj
 0002:000054a0       ??_C@_1M@OBGLJIPL@?$AAb?$AAe?$AA?9?$AAB?$AAY?$AA?$AA@ 00000001800264a0     libucrt:lcidtoname_downlevel.obj
 0002:000054b0       ??_C@_1M@BCFAJEAD@?$AAs?$AAl?$AA?9?$AAS?$AAI?$AA?$AA@ 00000001800264b0     libucrt:lcidtoname_downlevel.obj
 0002:000054c0       ??_C@_1M@FKFFEDDN@?$AAe?$AAt?$AA?9?$AAE?$AAE?$AA?$AA@ 00000001800264c0     libucrt:lcidtoname_downlevel.obj
 0002:000054d0       ??_C@_1M@KGKKAACI@?$AAl?$AAv?$AA?9?$AAL?$AAV?$AA?$AA@ 00000001800264d0     libucrt:lcidtoname_downlevel.obj
 0002:000054e0       ??_C@_1M@IFGBIJO@?$AAl?$AAt?$AA?9?$AAL?$AAT?$AA?$AA@ 00000001800264e0     libucrt:lcidtoname_downlevel.obj
 0002:000054f0       ??_C@_1M@FGEAHEDM@?$AAf?$AAa?$AA?9?$AAI?$AAR?$AA?$AA@ 00000001800264f0     libucrt:lcidtoname_downlevel.obj
 0002:00005500       ??_C@_1M@KBMAIBFN@?$AAv?$AAi?$AA?9?$AAV?$AAN?$AA?$AA@ 0000000180026500     libucrt:lcidtoname_downlevel.obj
 0002:00005510       ??_C@_1M@GPCBKDJK@?$AAh?$AAy?$AA?9?$AAA?$AAM?$AA?$AA@ 0000000180026510     libucrt:lcidtoname_downlevel.obj
 0002:00005520       ??_C@_1BG@BECMDDJB@?$AAa?$AAz?$AA?9?$AAA?$AAZ?$AA?9?$AAL?$AAa?$AAt?$AAn?$AA?$AA@ 0000000180026520     libucrt:lcidtoname_downlevel.obj
 0002:00005538       ??_C@_1M@MAOFCAEA@?$AAe?$AAu?$AA?9?$AAE?$AAS?$AA?$AA@ 0000000180026538     libucrt:lcidtoname_downlevel.obj
 0002:00005548       ??_C@_1M@IGHABKPI@?$AAm?$AAk?$AA?9?$AAM?$AAK?$AA?$AA@ 0000000180026548     libucrt:lcidtoname_downlevel.obj
 0002:00005558       ??_C@_1M@IAIGNEJG@?$AAt?$AAn?$AA?9?$AAZ?$AAA?$AA?$AA@ 0000000180026558     libucrt:lcidtoname_downlevel.obj
 0002:00005568       ??_C@_1M@IIJCOJFA@?$AAx?$AAh?$AA?9?$AAZ?$AAA?$AA?$AA@ 0000000180026568     libucrt:lcidtoname_downlevel.obj
 0002:00005578       ??_C@_1M@LGPJHNJH@?$AAz?$AAu?$AA?9?$AAZ?$AAA?$AA?$AA@ 0000000180026578     libucrt:lcidtoname_downlevel.obj
 0002:00005588       ??_C@_1M@HOKAOIO@?$AAa?$AAf?$AA?9?$AAZ?$AAA?$AA?$AA@ 0000000180026588     libucrt:lcidtoname_downlevel.obj
 0002:00005598       ??_C@_1M@DPCLHLIE@?$AAk?$AAa?$AA?9?$AAG?$AAE?$AA?$AA@ 0000000180026598     libucrt:lcidtoname_downlevel.obj
 0002:000055a8       ??_C@_1M@BLKMHJBI@?$AAf?$AAo?$AA?9?$AAF?$AAO?$AA?$AA@ 00000001800265a8     libucrt:lcidtoname_downlevel.obj
 0002:000055b8       ??_C@_1M@LGGJAPPB@?$AAh?$AAi?$AA?9?$AAI?$AAN?$AA?$AA@ 00000001800265b8     libucrt:lcidtoname_downlevel.obj
 0002:000055c8       ??_C@_1M@FIKPIHFE@?$AAm?$AAt?$AA?9?$AAM?$AAT?$AA?$AA@ 00000001800265c8     libucrt:lcidtoname_downlevel.obj
 0002:000055d8       ??_C@_1M@HEGGPBFA@?$AAs?$AAe?$AA?9?$AAN?$AAO?$AA?$AA@ 00000001800265d8     libucrt:lcidtoname_downlevel.obj
 0002:000055e8       ??_C@_1M@EIBJEEPA@?$AAm?$AAs?$AA?9?$AAM?$AAY?$AA?$AA@ 00000001800265e8     libucrt:lcidtoname_downlevel.obj
 0002:000055f8       ??_C@_1M@FHLBGMPP@?$AAk?$AAk?$AA?9?$AAK?$AAZ?$AA?$AA@ 00000001800265f8     libucrt:lcidtoname_downlevel.obj
 0002:00005608       ??_C@_1M@NGJJLCGI@?$AAk?$AAy?$AA?9?$AAK?$AAG?$AA?$AA@ 0000000180026608     libucrt:lcidtoname_downlevel.obj
 0002:00005618       ??_C@_1M@GIENNBFC@?$AAs?$AAw?$AA?9?$AAK?$AAE?$AA?$AA@ 0000000180026618     libucrt:lcidtoname_downlevel.obj
 0002:00005628       ??_C@_1BG@NDGMJIMJ@?$AAu?$AAz?$AA?9?$AAU?$AAZ?$AA?9?$AAL?$AAa?$AAt?$AAn?$AA?$AA@ 0000000180026628     libucrt:lcidtoname_downlevel.obj
 0002:00005640       ??_C@_1M@IDCCIHBC@?$AAt?$AAt?$AA?9?$AAR?$AAU?$AA?$AA@ 0000000180026640     libucrt:lcidtoname_downlevel.obj
 0002:00005650       ??_C@_1M@LOICPMOJ@?$AAb?$AAn?$AA?9?$AAI?$AAN?$AA?$AA@ 0000000180026650     libucrt:lcidtoname_downlevel.obj
 0002:00005660       ??_C@_1M@KPKKNEAH@?$AAp?$AAa?$AA?9?$AAI?$AAN?$AA?$AA@ 0000000180026660     libucrt:lcidtoname_downlevel.obj
 0002:00005670       ??_C@_1M@PJGPPBOG@?$AAg?$AAu?$AA?9?$AAI?$AAN?$AA?$AA@ 0000000180026670     libucrt:lcidtoname_downlevel.obj
 0002:00005680       ??_C@_1M@KMKMOPHI@?$AAt?$AAa?$AA?9?$AAI?$AAN?$AA?$AA@ 0000000180026680     libucrt:lcidtoname_downlevel.obj
 0002:00005690       ??_C@_1M@KFEHEPAC@?$AAt?$AAe?$AA?9?$AAI?$AAN?$AA?$AA@ 0000000180026690     libucrt:lcidtoname_downlevel.obj
 0002:000056a0       ??_C@_1M@CDCLMGHI@?$AAk?$AAn?$AA?9?$AAI?$AAN?$AA?$AA@ 00000001800266a0     libucrt:lcidtoname_downlevel.obj
 0002:000056b0       ??_C@_1M@MIODLDKF@?$AAm?$AAl?$AA?9?$AAI?$AAN?$AA?$AA@ 00000001800266b0     libucrt:lcidtoname_downlevel.obj
 0002:000056c0       ??_C@_1M@PBIEACPO@?$AAm?$AAr?$AA?9?$AAI?$AAN?$AA?$AA@ 00000001800266c0     libucrt:lcidtoname_downlevel.obj
 0002:000056d0       ??_C@_1M@NIDEAGPH@?$AAs?$AAa?$AA?9?$AAI?$AAN?$AA?$AA@ 00000001800266d0     libucrt:lcidtoname_downlevel.obj
 0002:000056e0       ??_C@_1M@FHIHCBIO@?$AAm?$AAn?$AA?9?$AAM?$AAN?$AA?$AA@ 00000001800266e0     libucrt:lcidtoname_downlevel.obj
 0002:000056f0       ??_C@_1M@JAIJPENP@?$AAc?$AAy?$AA?9?$AAG?$AAB?$AA?$AA@ 00000001800266f0     libucrt:lcidtoname_downlevel.obj
 0002:00005700       ??_C@_1M@PHGFBEPN@?$AAg?$AAl?$AA?9?$AAE?$AAS?$AA?$AA@ 0000000180026700     libucrt:lcidtoname_downlevel.obj
 0002:00005710       ??_C@_1O@KPIPDNCP@?$AAk?$AAo?$AAk?$AA?9?$AAI?$AAN?$AA?$AA@ 0000000180026710     libucrt:lcidtoname_downlevel.obj
 0002:00005720       ??_C@_1O@KNHJLDJA@?$AAs?$AAy?$AAr?$AA?9?$AAS?$AAY?$AA?$AA@ 0000000180026720     libucrt:lcidtoname_downlevel.obj
 0002:00005730       ??_C@_1O@MKEKBLAH@?$AAd?$AAi?$AAv?$AA?9?$AAM?$AAV?$AA?$AA@ 0000000180026730     libucrt:lcidtoname_downlevel.obj
 0002:00005740       ??_C@_1O@OHDCKDDF@?$AAq?$AAu?$AAz?$AA?9?$AAB?$AAO?$AA?$AA@ 0000000180026740     libucrt:lcidtoname_downlevel.obj
 0002:00005750       ??_C@_1M@LEPJNLFD@?$AAn?$AAs?$AA?9?$AAZ?$AAA?$AA?$AA@ 0000000180026750     libucrt:lcidtoname_downlevel.obj
 0002:00005760       ??_C@_1M@OMLEIIJB@?$AAm?$AAi?$AA?9?$AAN?$AAZ?$AA?$AA@ 0000000180026760     libucrt:lcidtoname_downlevel.obj
 0002:00005770       ??_C@_1M@PMPEAILG@?$AAa?$AAr?$AA?9?$AAI?$AAQ?$AA?$AA@ 0000000180026770     libucrt:lcidtoname_downlevel.obj
 0002:00005780       ??_C@_1M@CNKPNOEE@?$AAd?$AAe?$AA?9?$AAC?$AAH?$AA?$AA@ 0000000180026780     libucrt:lcidtoname_downlevel.obj
 0002:00005790       ??_C@_1M@LKMGMLKO@?$AAe?$AAn?$AA?9?$AAG?$AAB?$AA?$AA@ 0000000180026790     libucrt:lcidtoname_downlevel.obj
 0002:000057a0       ??_C@_1M@PGKJFFGL@?$AAe?$AAs?$AA?9?$AAM?$AAX?$AA?$AA@ 00000001800267a0     libucrt:lcidtoname_downlevel.obj
 0002:000057b0       ??_C@_1M@DNNANBDC@?$AAf?$AAr?$AA?9?$AAB?$AAE?$AA?$AA@ 00000001800267b0     libucrt:lcidtoname_downlevel.obj
 0002:000057c0       ??_C@_1M@HLGMDFHM@?$AAi?$AAt?$AA?9?$AAC?$AAH?$AA?$AA@ 00000001800267c0     libucrt:lcidtoname_downlevel.obj
 0002:000057d0       ??_C@_1M@CLLBGJH@?$AAn?$AAl?$AA?9?$AAB?$AAE?$AA?$AA@ 00000001800267d0     libucrt:lcidtoname_downlevel.obj
 0002:000057e0       ??_C@_1M@BODBOGLF@?$AAn?$AAn?$AA?9?$AAN?$AAO?$AA?$AA@ 00000001800267e0     libucrt:lcidtoname_downlevel.obj
 0002:000057f0       ??_C@_1M@HFFAHKAD@?$AAp?$AAt?$AA?9?$AAP?$AAT?$AA?$AA@ 00000001800267f0     libucrt:lcidtoname_downlevel.obj
 0002:00005800       ??_C@_1BG@LNOAKHIE@?$AAs?$AAr?$AA?9?$AAS?$AAP?$AA?9?$AAL?$AAa?$AAt?$AAn?$AA?$AA@ 0000000180026800     libucrt:lcidtoname_downlevel.obj
 0002:00005818       ??_C@_1M@HBMHBGAK@?$AAs?$AAv?$AA?9?$AAF?$AAI?$AA?$AA@ 0000000180026818     libucrt:lcidtoname_downlevel.obj
 0002:00005828       ??_C@_1BG@DGCJGJBE@?$AAa?$AAz?$AA?9?$AAA?$AAZ?$AA?9?$AAC?$AAy?$AAr?$AAl?$AA?$AA@ 0000000180026828     libucrt:lcidtoname_downlevel.obj
 0002:00005840       ??_C@_1M@KEJDAAHB@?$AAs?$AAe?$AA?9?$AAS?$AAE?$AA?$AA@ 0000000180026840     libucrt:lcidtoname_downlevel.obj
 0002:00005850       ??_C@_1M@HEIBJJAD@?$AAm?$AAs?$AA?9?$AAB?$AAN?$AA?$AA@ 0000000180026850     libucrt:lcidtoname_downlevel.obj
 0002:00005860       ??_C@_1BG@PBGJMCEM@?$AAu?$AAz?$AA?9?$AAU?$AAZ?$AA?9?$AAC?$AAy?$AAr?$AAl?$AA?$AA@ 0000000180026860     libucrt:lcidtoname_downlevel.obj
 0002:00005878       ??_C@_1O@LAOBCMDF@?$AAq?$AAu?$AAz?$AA?9?$AAE?$AAC?$AA?$AA@ 0000000180026878     libucrt:lcidtoname_downlevel.obj
 0002:00005888       ??_C@_1M@POEEMAIO@?$AAa?$AAr?$AA?9?$AAE?$AAG?$AA?$AA@ 0000000180026888     libucrt:lcidtoname_downlevel.obj
 0002:00005898       ??_C@_1M@EFAKDEDL@?$AAz?$AAh?$AA?9?$AAH?$AAK?$AA?$AA@ 0000000180026898     libucrt:lcidtoname_downlevel.obj
 0002:000058a8       ??_C@_1M@HKKIJHGI@?$AAd?$AAe?$AA?9?$AAA?$AAT?$AA?$AA@ 00000001800268a8     libucrt:lcidtoname_downlevel.obj
 0002:000058b8       ??_C@_1M@KBFBEHJF@?$AAe?$AAn?$AA?9?$AAA?$AAU?$AA?$AA@ 00000001800268b8     libucrt:lcidtoname_downlevel.obj
 0002:000058c8       ??_C@_1M@MNPLFAAH@?$AAe?$AAs?$AA?9?$AAE?$AAS?$AA?$AA@ 00000001800268c8     libucrt:lcidtoname_downlevel.obj
 0002:000058d8       ??_C@_1M@HJOOJFMA@?$AAf?$AAr?$AA?9?$AAC?$AAA?$AA?$AA@ 00000001800268d8     libucrt:lcidtoname_downlevel.obj
 0002:000058e8       ??_C@_1BG@JPOFPNAB@?$AAs?$AAr?$AA?9?$AAS?$AAP?$AA?9?$AAC?$AAy?$AAr?$AAl?$AA?$AA@ 00000001800268e8     libucrt:lcidtoname_downlevel.obj
 0002:00005900       ??_C@_1M@LNFOCMOB@?$AAs?$AAe?$AA?9?$AAF?$AAI?$AA?$AA@ 0000000180026900     libucrt:lcidtoname_downlevel.obj
 0002:00005910       ??_C@_1O@MGJBOAMB@?$AAq?$AAu?$AAz?$AA?9?$AAP?$AAE?$AA?$AA@ 0000000180026910     libucrt:lcidtoname_downlevel.obj
 0002:00005920       ??_C@_1M@GJINLBOK@?$AAa?$AAr?$AA?9?$AAL?$AAY?$AA?$AA@ 0000000180026920     libucrt:lcidtoname_downlevel.obj
 0002:00005930       ??_C@_1M@GGMNHJNL@?$AAz?$AAh?$AA?9?$AAS?$AAG?$AA?$AA@ 0000000180026930     libucrt:lcidtoname_downlevel.obj
 0002:00005940       ??_C@_1M@HOIKODND@?$AAd?$AAe?$AA?9?$AAL?$AAU?$AA?$AA@ 0000000180026940     libucrt:lcidtoname_downlevel.obj
 0002:00005950       ??_C@_1M@DDOCCGFG@?$AAe?$AAn?$AA?9?$AAC?$AAA?$AA?$AA@ 0000000180026950     libucrt:lcidtoname_downlevel.obj
 0002:00005960       ??_C@_1M@BNOEMJLF@?$AAe?$AAs?$AA?9?$AAG?$AAT?$AA?$AA@ 0000000180026960     libucrt:lcidtoname_downlevel.obj
 0002:00005970       ??_C@_1M@EOGNKEK@?$AAf?$AAr?$AA?9?$AAC?$AAH?$AA?$AA@ 0000000180026970     libucrt:lcidtoname_downlevel.obj
 0002:00005980       ??_C@_1M@FLIDJFHL@?$AAh?$AAr?$AA?9?$AAB?$AAA?$AA?$AA@ 0000000180026980     libucrt:lcidtoname_downlevel.obj
 0002:00005990       ??_C@_1O@FMCELNAJ@?$AAs?$AAm?$AAj?$AA?9?$AAN?$AAO?$AA?$AA@ 0000000180026990     libucrt:lcidtoname_downlevel.obj
 0002:000059a0       ??_C@_1M@JHGLJMGJ@?$AAa?$AAr?$AA?9?$AAD?$AAZ?$AA?$AA@ 00000001800269a0     libucrt:lcidtoname_downlevel.obj
 0002:000059b0       ??_C@_1M@JKKFDCNP@?$AAz?$AAh?$AA?9?$AAM?$AAO?$AA?$AA@ 00000001800269b0     libucrt:lcidtoname_downlevel.obj
 0002:000059c0       ??_C@_1M@GEEFALPE@?$AAd?$AAe?$AA?9?$AAL?$AAI?$AA?$AA@ 00000001800269c0     libucrt:lcidtoname_downlevel.obj
 0002:000059d0       ??_C@_1M@IGEOFBG@?$AAe?$AAn?$AA?9?$AAN?$AAZ?$AA?$AA@ 00000001800269d0     libucrt:lcidtoname_downlevel.obj
 0002:000059e0       ??_C@_1M@KDBONEHP@?$AAe?$AAs?$AA?9?$AAC?$AAR?$AA?$AA@ 00000001800269e0     libucrt:lcidtoname_downlevel.obj
 0002:000059f0       ??_C@_1M@FHMDOHNN@?$AAf?$AAr?$AA?9?$AAL?$AAU?$AA?$AA@ 00000001800269f0     libucrt:lcidtoname_downlevel.obj
 0002:00005a00       ??_C@_1BG@NFKKMAFG@?$AAb?$AAs?$AA?9?$AAB?$AAA?$AA?9?$AAL?$AAa?$AAt?$AAn?$AA?$AA@ 0000000180026a00     libucrt:lcidtoname_downlevel.obj
 0002:00005a18       ??_C@_1O@IMNBEMCI@?$AAs?$AAm?$AAj?$AA?9?$AAS?$AAE?$AA?$AA@ 0000000180026a18     libucrt:lcidtoname_downlevel.obj
 0002:00005a28       ??_C@_1M@DHHMBNDP@?$AAa?$AAr?$AA?9?$AAM?$AAA?$AA?$AA@ 0000000180026a28     libucrt:lcidtoname_downlevel.obj
 0002:00005a38       ??_C@_1M@BNBLJCGH@?$AAe?$AAn?$AA?9?$AAI?$AAE?$AA?$AA@ 0000000180026a38     libucrt:lcidtoname_downlevel.obj
 0002:00005a48       ??_C@_1M@GEPAFMDL@?$AAe?$AAs?$AA?9?$AAP?$AAA?$AA?$AA@ 0000000180026a48     libucrt:lcidtoname_downlevel.obj
 0002:00005a58       ??_C@_1M@OJONDMDL@?$AAf?$AAr?$AA?9?$AAM?$AAC?$AA?$AA@ 0000000180026a58     libucrt:lcidtoname_downlevel.obj
 0002:00005a68       ??_C@_1BG@OBCNFJB@?$AAs?$AAr?$AA?9?$AAB?$AAA?$AA?9?$AAL?$AAa?$AAt?$AAn?$AA?$AA@ 0000000180026a68     libucrt:lcidtoname_downlevel.obj
 0002:00005a80       ??_C@_1O@KEMEEGPO@?$AAs?$AAm?$AAa?$AA?9?$AAN?$AAO?$AA?$AA@ 0000000180026a80     libucrt:lcidtoname_downlevel.obj
 0002:00005a90       ??_C@_1M@ELMGFODK@?$AAa?$AAr?$AA?9?$AAT?$AAN?$AA?$AA@ 0000000180026a90     libucrt:lcidtoname_downlevel.obj
 0002:00005aa0       ??_C@_1M@BHDLHFAF@?$AAe?$AAn?$AA?9?$AAZ?$AAA?$AA?$AA@ 0000000180026aa0     libucrt:lcidtoname_downlevel.obj
 0002:00005ab0       ??_C@_1M@BMGIGLIF@?$AAe?$AAs?$AA?9?$AAD?$AAO?$AA?$AA@ 0000000180026ab0     libucrt:lcidtoname_downlevel.obj
 0002:00005ac0       ??_C@_1BG@CMBHIPBE@?$AAs?$AAr?$AA?9?$AAB?$AAA?$AA?9?$AAC?$AAy?$AAr?$AAl?$AA?$AA@ 0000000180026ac0     libucrt:lcidtoname_downlevel.obj
 0002:00005ad8       ??_C@_1O@HEDBLHNP@?$AAs?$AAm?$AAa?$AA?9?$AAS?$AAE?$AA?$AA@ 0000000180026ad8     libucrt:lcidtoname_downlevel.obj
 0002:00005ae8       ??_C@_1M@DAGCADIM@?$AAa?$AAr?$AA?9?$AAO?$AAM?$AA?$AA@ 0000000180026ae8     libucrt:lcidtoname_downlevel.obj
 0002:00005af8       ??_C@_1M@FODLMICG@?$AAe?$AAn?$AA?9?$AAJ?$AAM?$AA?$AA@ 0000000180026af8     libucrt:lcidtoname_downlevel.obj
 0002:00005b08       ??_C@_1M@DNMLCIHB@?$AAe?$AAs?$AA?9?$AAV?$AAE?$AA?$AA@ 0000000180026b08     libucrt:lcidtoname_downlevel.obj
 0002:00005b18       ??_C@_1O@EOKHMKJK@?$AAs?$AAm?$AAs?$AA?9?$AAF?$AAI?$AA?$AA@ 0000000180026b18     libucrt:lcidtoname_downlevel.obj
 0002:00005b28       ??_C@_1M@CAFJMKOF@?$AAa?$AAr?$AA?9?$AAY?$AAE?$AA?$AA@ 0000000180026b28     libucrt:lcidtoname_downlevel.obj
 0002:00005b38       ??_C@_1M@CBFHIJLI@?$AAe?$AAn?$AA?9?$AAC?$AAB?$AA?$AA@ 0000000180026b38     libucrt:lcidtoname_downlevel.obj
 0002:00005b48       ??_C@_1M@BGNFLDN@?$AAe?$AAs?$AA?9?$AAC?$AAO?$AA?$AA@ 0000000180026b48     libucrt:lcidtoname_downlevel.obj
 0002:00005b58       ??_C@_1O@JMPHMAMC@?$AAs?$AAm?$AAn?$AA?9?$AAF?$AAI?$AA?$AA@ 0000000180026b58     libucrt:lcidtoname_downlevel.obj
 0002:00005b68       ??_C@_1M@JLANABKE@?$AAa?$AAr?$AA?9?$AAS?$AAY?$AA?$AA@ 0000000180026b68     libucrt:lcidtoname_downlevel.obj
 0002:00005b78       ??_C@_1M@HPKGCFGN@?$AAe?$AAn?$AA?9?$AAB?$AAZ?$AA?$AA@ 0000000180026b78     libucrt:lcidtoname_downlevel.obj
 0002:00005b88       ??_C@_1M@OLJCMLGM@?$AAe?$AAs?$AA?9?$AAP?$AAE?$AA?$AA@ 0000000180026b88     libucrt:lcidtoname_downlevel.obj
 0002:00005b98       ??_C@_1M@MKKGFKLE@?$AAa?$AAr?$AA?9?$AAJ?$AAO?$AA?$AA@ 0000000180026b98     libucrt:lcidtoname_downlevel.obj
 0002:00005ba8       ??_C@_1M@EKPGLDNI@?$AAe?$AAn?$AA?9?$AAT?$AAT?$AA?$AA@ 0000000180026ba8     libucrt:lcidtoname_downlevel.obj
 0002:00005bb8       ??_C@_1M@OONGHFHE@?$AAe?$AAs?$AA?9?$AAA?$AAR?$AA?$AA@ 0000000180026bb8     libucrt:lcidtoname_downlevel.obj
 0002:00005bc8       ??_C@_1M@OOJFGBHE@?$AAa?$AAr?$AA?9?$AAL?$AAB?$AA?$AA@ 0000000180026bc8     libucrt:lcidtoname_downlevel.obj
 0002:00005bd8       ??_C@_1M@GCEJHNEG@?$AAe?$AAn?$AA?9?$AAZ?$AAW?$AA?$AA@ 0000000180026bd8     libucrt:lcidtoname_downlevel.obj
 0002:00005be8       ??_C@_1M@JNOCAHJI@?$AAe?$AAs?$AA?9?$AAE?$AAC?$AA?$AA@ 0000000180026be8     libucrt:lcidtoname_downlevel.obj
 0002:00005bf8       ??_C@_1M@JEFHPGGB@?$AAa?$AAr?$AA?9?$AAK?$AAW?$AA?$AA@ 0000000180026bf8     libucrt:lcidtoname_downlevel.obj
 0002:00005c08       ??_C@_1M@MLKIBJOJ@?$AAe?$AAn?$AA?9?$AAP?$AAH?$AA?$AA@ 0000000180026c08     libucrt:lcidtoname_downlevel.obj
 0002:00005c18       ??_C@_1M@BDNIPEND@?$AAe?$AAs?$AA?9?$AAC?$AAL?$AA?$AA@ 0000000180026c18     libucrt:lcidtoname_downlevel.obj
 0002:00005c28       ??_C@_1M@MPNMEKBD@?$AAa?$AAr?$AA?9?$AAA?$AAE?$AA?$AA@ 0000000180026c28     libucrt:lcidtoname_downlevel.obj
 0002:00005c38       ??_C@_1M@KBJALCPI@?$AAe?$AAs?$AA?9?$AAU?$AAY?$AA?$AA@ 0000000180026c38     libucrt:lcidtoname_downlevel.obj
 0002:00005c48       ??_C@_1M@LLCCOAGA@?$AAa?$AAr?$AA?9?$AAB?$AAH?$AA?$AA@ 0000000180026c48     libucrt:lcidtoname_downlevel.obj
 0002:00005c58       ??_C@_1M@PBFNCDEL@?$AAe?$AAs?$AA?9?$AAP?$AAY?$AA?$AA@ 0000000180026c58     libucrt:lcidtoname_downlevel.obj
 0002:00005c68       ??_C@_1M@EDGINPNP@?$AAa?$AAr?$AA?9?$AAQ?$AAA?$AA?$AA@ 0000000180026c68     libucrt:lcidtoname_downlevel.obj
 0002:00005c78       ??_C@_1M@MKDBIIJI@?$AAe?$AAs?$AA?9?$AAB?$AAO?$AA?$AA@ 0000000180026c78     libucrt:lcidtoname_downlevel.obj
 0002:00005c88       ??_C@_1M@CPKKEBLD@?$AAe?$AAs?$AA?9?$AAS?$AAV?$AA?$AA@ 0000000180026c88     libucrt:lcidtoname_downlevel.obj
 0002:00005c98       ??_C@_1M@NDBGMMJL@?$AAe?$AAs?$AA?9?$AAH?$AAN?$AA?$AA@ 0000000180026c98     libucrt:lcidtoname_downlevel.obj
 0002:00005ca8       ??_C@_1M@JIJIBHDP@?$AAe?$AAs?$AA?9?$AAN?$AAI?$AA?$AA@ 0000000180026ca8     libucrt:lcidtoname_downlevel.obj
 0002:00005cb8       ??_C@_1M@CGFMKEEK@?$AAe?$AAs?$AA?9?$AAP?$AAR?$AA?$AA@ 0000000180026cb8     libucrt:lcidtoname_downlevel.obj
 0002:00005cc8       ??_C@_1O@ICJHKIIK@?$AAz?$AAh?$AA?9?$AAC?$AAH?$AAT?$AA?$AA@ 0000000180026cc8     libucrt:lcidtoname_downlevel.obj
 0002:00005cd8       ??_C@_15CLNEJCE@?$AAs?$AAr?$AA?$AA@ 0000000180026cd8     libucrt:lcidtoname_downlevel.obj
 0002:00006b20       ??_C@_1M@KAHEKEIG@?$AAa?$AAf?$AA?9?$AAz?$AAa?$AA?$AA@ 0000000180027b20     libucrt:lcidtoname_downlevel.obj
 0002:00006b30       ??_C@_1M@GIECOABL@?$AAa?$AAr?$AA?9?$AAa?$AAe?$AA?$AA@ 0000000180027b30     libucrt:lcidtoname_downlevel.obj
 0002:00006b40       ??_C@_1M@BMLMEKGI@?$AAa?$AAr?$AA?9?$AAb?$AAh?$AA?$AA@ 0000000180027b40     libucrt:lcidtoname_downlevel.obj
 0002:00006b50       ??_C@_1M@DAPFDGGB@?$AAa?$AAr?$AA?9?$AAd?$AAz?$AA?$AA@ 0000000180027b50     libucrt:lcidtoname_downlevel.obj
 0002:00006b60       ??_C@_1M@FJNKGKIG@?$AAa?$AAr?$AA?9?$AAe?$AAg?$AA?$AA@ 0000000180027b60     libucrt:lcidtoname_downlevel.obj
 0002:00006b70       ??_C@_1M@FLGKKCLO@?$AAa?$AAr?$AA?9?$AAi?$AAq?$AA?$AA@ 0000000180027b70     libucrt:lcidtoname_downlevel.obj
 0002:00006b80       ??_C@_1M@GNDIPALM@?$AAa?$AAr?$AA?9?$AAj?$AAo?$AA?$AA@ 0000000180027b80     libucrt:lcidtoname_downlevel.obj
 0002:00006b90       ??_C@_1M@DDMJFMGJ@?$AAa?$AAr?$AA?9?$AAk?$AAw?$AA?$AA@ 0000000180027b90     libucrt:lcidtoname_downlevel.obj
 0002:00006ba0       ??_C@_1M@EJALMLHM@?$AAa?$AAr?$AA?9?$AAl?$AAb?$AA?$AA@ 0000000180027ba0     libucrt:lcidtoname_downlevel.obj
 0002:00006bb0       ??_C@_1M@MOBDBLOC@?$AAa?$AAr?$AA?9?$AAl?$AAy?$AA?$AA@ 0000000180027bb0     libucrt:lcidtoname_downlevel.obj
 0002:00006bc0       ??_C@_1M@JAOCLHDH@?$AAa?$AAr?$AA?9?$AAm?$AAa?$AA?$AA@ 0000000180027bc0     libucrt:lcidtoname_downlevel.obj
 0002:00006bd0       ??_C@_1M@JHPMKJIE@?$AAa?$AAr?$AA?9?$AAo?$AAm?$AA?$AA@ 0000000180027bd0     libucrt:lcidtoname_downlevel.obj
 0002:00006be0       ??_C@_1M@OEPGHFNH@?$AAa?$AAr?$AA?9?$AAq?$AAa?$AA?$AA@ 0000000180027be0     libucrt:lcidtoname_downlevel.obj
 0002:00006bf0       ??_C@_1M@KJDONENM@?$AAa?$AAr?$AA?9?$AAs?$AAa?$AA?$AA@ 0000000180027bf0     libucrt:lcidtoname_downlevel.obj
 0002:00006c00       ??_C@_1M@DMJDKLKM@?$AAa?$AAr?$AA?9?$AAs?$AAy?$AA?$AA@ 0000000180027c00     libucrt:lcidtoname_downlevel.obj
 0002:00006c10       ??_C@_1M@OMFIPEDC@?$AAa?$AAr?$AA?9?$AAt?$AAn?$AA?$AA@ 0000000180027c10     libucrt:lcidtoname_downlevel.obj
 0002:00006c20       ??_C@_1M@IHMHGAON@?$AAa?$AAr?$AA?9?$AAy?$AAe?$AA?$AA@ 0000000180027c20     libucrt:lcidtoname_downlevel.obj
 0002:00006c30       ??_C@_1BG@KDCPGJGB@?$AAa?$AAz?$AA?9?$AAa?$AAz?$AA?9?$AAc?$AAy?$AAr?$AAl?$AA?$AA@ 0000000180027c30     libucrt:lcidtoname_downlevel.obj
 0002:00006c48       ??_C@_1BG@IBCKDDOE@?$AAa?$AAz?$AA?9?$AAa?$AAz?$AA?9?$AAl?$AAa?$AAt?$AAn?$AA?$AA@ 0000000180027c48     libucrt:lcidtoname_downlevel.obj
 0002:00006c60       ??_C@_1M@EGPFDCPD@?$AAb?$AAe?$AA?9?$AAb?$AAy?$AA?$AA@ 0000000180027c60     libucrt:lcidtoname_downlevel.obj
 0002:00006c70       ??_C@_1M@PCMGMCGC@?$AAb?$AAg?$AA?9?$AAb?$AAg?$AA?$AA@ 0000000180027c70     libucrt:lcidtoname_downlevel.obj
 0002:00006c80       ??_C@_1M@BJBMFGOB@?$AAb?$AAn?$AA?9?$AAi?$AAn?$AA?$AA@ 0000000180027c80     libucrt:lcidtoname_downlevel.obj
 0002:00006c90       ??_C@_1BG@EAKMMACD@?$AAb?$AAs?$AA?9?$AAb?$AAa?$AA?9?$AAl?$AAa?$AAt?$AAn?$AA?$AA@ 0000000180027c90     libucrt:lcidtoname_downlevel.obj
 0002:00006ca8       ??_C@_1M@KGADAODK@?$AAc?$AAa?$AA?9?$AAe?$AAs?$AA?$AA@ 0000000180027ca8     libucrt:lcidtoname_downlevel.obj
 0002:00006cb8       ??_C@_1M@COAJPDHI@?$AAc?$AAs?$AA?9?$AAc?$AAz?$AA?$AA@ 0000000180027cb8     libucrt:lcidtoname_downlevel.obj
 0002:00006cc8       ??_C@_1M@DHBHFONH@?$AAc?$AAy?$AA?9?$AAg?$AAb?$AA?$AA@ 0000000180027cc8     libucrt:lcidtoname_downlevel.obj
 0002:00006cd8       ??_C@_1M@IMGKELGA@?$AAd?$AAa?$AA?9?$AAd?$AAk?$AA?$AA@ 0000000180027cd8     libucrt:lcidtoname_downlevel.obj
 0002:00006ce8       ??_C@_1M@NNDGDNGA@?$AAd?$AAe?$AA?9?$AAa?$AAt?$AA?$AA@ 0000000180027ce8     libucrt:lcidtoname_downlevel.obj
 0002:00006cf8       ??_C@_1M@IKDBHEEM@?$AAd?$AAe?$AA?9?$AAc?$AAh?$AA?$AA@ 0000000180027cf8     libucrt:lcidtoname_downlevel.obj
 0002:00006d08       ??_C@_1M@GFFOJMCJ@?$AAd?$AAe?$AA?9?$AAd?$AAe?$AA?$AA@ 0000000180027d08     libucrt:lcidtoname_downlevel.obj
 0002:00006d18       ??_C@_1M@MDNLKBPM@?$AAd?$AAe?$AA?9?$AAl?$AAi?$AA?$AA@ 0000000180027d18     libucrt:lcidtoname_downlevel.obj
 0002:00006d28       ??_C@_1M@NJBEEJNL@?$AAd?$AAe?$AA?9?$AAl?$AAu?$AA?$AA@ 0000000180027d28     libucrt:lcidtoname_downlevel.obj
 0002:00006d38       ??_C@_1O@GNNELBAP@?$AAd?$AAi?$AAv?$AA?9?$AAm?$AAv?$AA?$AA@ 0000000180027d38     libucrt:lcidtoname_downlevel.obj
 0002:00006d48       ??_C@_1M@EJLEOGAE@?$AAe?$AAl?$AA?9?$AAg?$AAr?$AA?$AA@ 0000000180027d48     libucrt:lcidtoname_downlevel.obj
 0002:00006d58       ??_C@_1M@GMPONJN@?$AAe?$AAn?$AA?9?$AAa?$AAu?$AA?$AA@ 0000000180027d58     libucrt:lcidtoname_downlevel.obj
 0002:00006d68       ??_C@_1M@NIDIIPGF@?$AAe?$AAn?$AA?9?$AAb?$AAz?$AA?$AA@ 0000000180027d68     libucrt:lcidtoname_downlevel.obj
 0002:00006d78       ??_C@_1M@JEHMIMFO@?$AAe?$AAn?$AA?9?$AAc?$AAa?$AA?$AA@ 0000000180027d78     libucrt:lcidtoname_downlevel.obj
 0002:00006d88       ??_C@_1M@IGMJCDLA@?$AAe?$AAn?$AA?9?$AAc?$AAb?$AA?$AA@ 0000000180027d88     libucrt:lcidtoname_downlevel.obj
 0002:00006d98       ??_C@_1M@BNFIGBKG@?$AAe?$AAn?$AA?9?$AAg?$AAb?$AA?$AA@ 0000000180027d98     libucrt:lcidtoname_downlevel.obj
 0002:00006da8       ??_C@_1M@LKIFDIGP@?$AAe?$AAn?$AA?9?$AAi?$AAe?$AA?$AA@ 0000000180027da8     libucrt:lcidtoname_downlevel.obj
 0002:00006db8       ??_C@_1M@PJKFGCCO@?$AAe?$AAn?$AA?9?$AAj?$AAm?$AA?$AA@ 0000000180027db8     libucrt:lcidtoname_downlevel.obj
 0002:00006dc8       ??_C@_1M@KPPKEPBO@?$AAe?$AAn?$AA?9?$AAn?$AAz?$AA?$AA@ 0000000180027dc8     libucrt:lcidtoname_downlevel.obj
 0002:00006dd8       ??_C@_1M@GMDGLDOB@?$AAe?$AAn?$AA?9?$AAp?$AAh?$AA?$AA@ 0000000180027dd8     libucrt:lcidtoname_downlevel.obj
 0002:00006de8       ??_C@_1M@ONGIBJNA@?$AAe?$AAn?$AA?9?$AAt?$AAt?$AA?$AA@ 0000000180027de8     libucrt:lcidtoname_downlevel.obj
 0002:00006df8       ??_C@_1M@LLODPCMM@?$AAe?$AAn?$AA?9?$AAu?$AAs?$AA?$AA@ 0000000180027df8     libucrt:lcidtoname_downlevel.obj
 0002:00006e08       ??_C@_1M@LAKFNPAN@?$AAe?$AAn?$AA?9?$AAz?$AAa?$AA?$AA@ 0000000180027e08     libucrt:lcidtoname_downlevel.obj
 0002:00006e18       ??_C@_1M@MFNHNHEO@?$AAe?$AAn?$AA?9?$AAz?$AAw?$AA?$AA@ 0000000180027e18     libucrt:lcidtoname_downlevel.obj
 0002:00006e28       ??_C@_1M@EJEINPHM@?$AAe?$AAs?$AA?9?$AAa?$AAr?$AA?$AA@ 0000000180027e28     libucrt:lcidtoname_downlevel.obj
 0002:00006e38       ??_C@_1M@GNKPCCJA@?$AAe?$AAs?$AA?9?$AAb?$AAo?$AA?$AA@ 0000000180027e38     libucrt:lcidtoname_downlevel.obj
 0002:00006e48       ??_C@_1M@LEEGFONL@?$AAe?$AAs?$AA?9?$AAc?$AAl?$AA?$AA@ 0000000180027e48     libucrt:lcidtoname_downlevel.obj
 0002:00006e58       ??_C@_1M@KGPDPBDF@?$AAe?$AAs?$AA?9?$AAc?$AAo?$AA?$AA@ 0000000180027e58     libucrt:lcidtoname_downlevel.obj
 0002:00006e68       ??_C@_1M@EIAHOHH@?$AAe?$AAs?$AA?9?$AAc?$AAr?$AA?$AA@ 0000000180027e68     libucrt:lcidtoname_downlevel.obj
 0002:00006e78       ??_C@_1M@LLPGMBIN@?$AAe?$AAs?$AA?9?$AAd?$AAo?$AA?$AA@ 0000000180027e78     libucrt:lcidtoname_downlevel.obj
 0002:00006e88       ??_C@_1M@DKHMKNJA@?$AAe?$AAs?$AA?9?$AAe?$AAc?$AA?$AA@ 0000000180027e88     libucrt:lcidtoname_downlevel.obj
 0002:00006e98       ??_C@_1M@GKGFPKAP@?$AAe?$AAs?$AA?9?$AAe?$AAs?$AA?$AA@ 0000000180027e98     libucrt:lcidtoname_downlevel.obj
 0002:00006ea8       ??_C@_1M@LKHKGDLN@?$AAe?$AAs?$AA?9?$AAg?$AAt?$AA?$AA@ 0000000180027ea8     libucrt:lcidtoname_downlevel.obj
 0002:00006eb8       ??_C@_1M@HEIIGGJD@?$AAe?$AAs?$AA?9?$AAh?$AAn?$AA?$AA@ 0000000180027eb8     libucrt:lcidtoname_downlevel.obj
 0002:00006ec8       ??_C@_1M@FBDHPPGD@?$AAe?$AAs?$AA?9?$AAm?$AAx?$AA?$AA@ 0000000180027ec8     libucrt:lcidtoname_downlevel.obj
 0002:00006ed8       ??_C@_1M@DPAGLNDH@?$AAe?$AAs?$AA?9?$AAn?$AAi?$AA?$AA@ 0000000180027ed8     libucrt:lcidtoname_downlevel.obj
 0002:00006ee8       ??_C@_1M@MDGOPGDD@?$AAe?$AAs?$AA?9?$AAp?$AAa?$AA?$AA@ 0000000180027ee8     libucrt:lcidtoname_downlevel.obj
 0002:00006ef8       ??_C@_1M@EMAMGBGE@?$AAe?$AAs?$AA?9?$AAp?$AAe?$AA?$AA@ 0000000180027ef8     libucrt:lcidtoname_downlevel.obj
 0002:00006f08       ??_C@_1M@IBMCAOEC@?$AAe?$AAs?$AA?9?$AAp?$AAr?$AA?$AA@ 0000000180027f08     libucrt:lcidtoname_downlevel.obj
 0002:00006f18       ??_C@_1M@FGMDIJED@?$AAe?$AAs?$AA?9?$AAp?$AAy?$AA?$AA@ 0000000180027f18     libucrt:lcidtoname_downlevel.obj
 0002:00006f28       ??_C@_1M@IIDEOLLL@?$AAe?$AAs?$AA?9?$AAs?$AAv?$AA?$AA@ 0000000180027f28     libucrt:lcidtoname_downlevel.obj
 0002:00006f38       ??_C@_1M@GAOBIPA@?$AAe?$AAs?$AA?9?$AAu?$AAy?$AA?$AA@ 0000000180027f38     libucrt:lcidtoname_downlevel.obj
 0002:00006f48       ??_C@_1M@JKFFICHJ@?$AAe?$AAs?$AA?9?$AAv?$AAe?$AA?$AA@ 0000000180027f48     libucrt:lcidtoname_downlevel.obj
 0002:00006f58       ??_C@_1M@PNMLOJDF@?$AAe?$AAt?$AA?9?$AAe?$AAe?$AA?$AA@ 0000000180027f58     libucrt:lcidtoname_downlevel.obj
 0002:00006f68       ??_C@_1M@GHHLIKEI@?$AAe?$AAu?$AA?9?$AAe?$AAs?$AA?$AA@ 0000000180027f68     libucrt:lcidtoname_downlevel.obj
 0002:00006f78       ??_C@_1M@PBNONODE@?$AAf?$AAa?$AA?9?$AAi?$AAr?$AA?$AA@ 0000000180027f78     libucrt:lcidtoname_downlevel.obj
 0002:00006f88       ??_C@_1M@JEEHPMIL@?$AAf?$AAi?$AA?9?$AAf?$AAi?$AA?$AA@ 0000000180027f88     libucrt:lcidtoname_downlevel.obj
 0002:00006f98       ??_C@_1M@LMDCNDBA@?$AAf?$AAo?$AA?9?$AAf?$AAo?$AA?$AA@ 0000000180027f98     libucrt:lcidtoname_downlevel.obj
 0002:00006fa8       ??_C@_1M@JKEOHLDK@?$AAf?$AAr?$AA?9?$AAb?$AAe?$AA?$AA@ 0000000180027fa8     libucrt:lcidtoname_downlevel.obj
 0002:00006fb8       ??_C@_1M@NOHADPMI@?$AAf?$AAr?$AA?9?$AAc?$AAa?$AA?$AA@ 0000000180027fb8     libucrt:lcidtoname_downlevel.obj
 0002:00006fc8       ??_C@_1M@KDHIHAEC@?$AAf?$AAr?$AA?9?$AAc?$AAh?$AA?$AA@ 0000000180027fc8     libucrt:lcidtoname_downlevel.obj
 0002:00006fd8       ??_C@_1M@MMBBFGAK@?$AAf?$AAr?$AA?9?$AAf?$AAr?$AA?$AA@ 0000000180027fd8     libucrt:lcidtoname_downlevel.obj
 0002:00006fe8       ??_C@_1M@PAFNENNF@?$AAf?$AAr?$AA?9?$AAl?$AAu?$AA?$AA@ 0000000180027fe8     libucrt:lcidtoname_downlevel.obj
 0002:00006ff8       ??_C@_1M@EOHDJGDD@?$AAf?$AAr?$AA?9?$AAm?$AAc?$AA?$AA@ 0000000180027ff8     libucrt:lcidtoname_downlevel.obj
 0002:00007008       ??_C@_1M@FAPLLOPF@?$AAg?$AAl?$AA?9?$AAe?$AAs?$AA?$AA@ 0000000180028008     libucrt:lcidtoname_downlevel.obj
 0002:00007018       ??_C@_1M@FOPBFLOO@?$AAg?$AAu?$AA?9?$AAi?$AAn?$AA?$AA@ 0000000180028018     libucrt:lcidtoname_downlevel.obj
 0002:00007028       ??_C@_1M@KBMCINPM@?$AAh?$AAe?$AA?9?$AAi?$AAl?$AA?$AA@ 0000000180028028     libucrt:lcidtoname_downlevel.obj
 0002:00007038       ??_C@_1M@BBPHKFPJ@?$AAh?$AAi?$AA?9?$AAi?$AAn?$AA?$AA@ 0000000180028038     libucrt:lcidtoname_downlevel.obj
 0002:00007048       ??_C@_1M@PMBNDPHD@?$AAh?$AAr?$AA?9?$AAb?$AAa?$AA?$AA@ 0000000180028048     libucrt:lcidtoname_downlevel.obj
 0002:00007058       ??_C@_1M@BPCKOEGE@?$AAh?$AAr?$AA?9?$AAh?$AAr?$AA?$AA@ 0000000180028058     libucrt:lcidtoname_downlevel.obj
 0002:00007068       ??_C@_1M@GACBMHKE@?$AAh?$AAu?$AA?9?$AAh?$AAu?$AA?$AA@ 0000000180028068     libucrt:lcidtoname_downlevel.obj
 0002:00007078       ??_C@_1M@MILPAJJC@?$AAh?$AAy?$AA?9?$AAa?$AAm?$AA?$AA@ 0000000180028078     libucrt:lcidtoname_downlevel.obj
 0002:00007088       ??_C@_1M@BABBICEC@?$AAi?$AAd?$AA?9?$AAi?$AAd?$AA?$AA@ 0000000180028088     libucrt:lcidtoname_downlevel.obj
 0002:00007098       ??_C@_1M@BIKNHHPF@?$AAi?$AAs?$AA?9?$AAi?$AAs?$AA?$AA@ 0000000180028098     libucrt:lcidtoname_downlevel.obj
 0002:000070a8       ??_C@_1M@NMPCJPHE@?$AAi?$AAt?$AA?9?$AAc?$AAh?$AA?$AA@ 00000001800280a8     libucrt:lcidtoname_downlevel.obj
 0002:000070b8       ??_C@_1M@GHKGFEDF@?$AAi?$AAt?$AA?9?$AAi?$AAt?$AA?$AA@ 00000001800280b8     libucrt:lcidtoname_downlevel.obj
 0002:000070c8       ??_C@_1M@NIEJCJJA@?$AAj?$AAa?$AA?9?$AAj?$AAp?$AA?$AA@ 00000001800280c8     libucrt:lcidtoname_downlevel.obj
 0002:000070d8       ??_C@_1M@JILFNBIM@?$AAk?$AAa?$AA?9?$AAg?$AAe?$AA?$AA@ 00000001800280d8     libucrt:lcidtoname_downlevel.obj
 0002:000070e8       ??_C@_1M@PACPMGPH@?$AAk?$AAk?$AA?9?$AAk?$AAz?$AA?$AA@ 00000001800280e8     libucrt:lcidtoname_downlevel.obj
 0002:000070f8       ??_C@_1M@IELFGMHA@?$AAk?$AAn?$AA?9?$AAi?$AAn?$AA?$AA@ 00000001800280f8     libucrt:lcidtoname_downlevel.obj
 0002:00007108       ??_C@_1O@IBBJHCH@?$AAk?$AAo?$AAk?$AA?9?$AAi?$AAn?$AA?$AA@ 0000000180028108     libucrt:lcidtoname_downlevel.obj
 0002:00007118       ??_C@_1M@DMHAEOGC@?$AAk?$AAo?$AA?9?$AAk?$AAr?$AA?$AA@ 0000000180028118     libucrt:lcidtoname_downlevel.obj
 0002:00007128       ??_C@_1M@HBAHBIGA@?$AAk?$AAy?$AA?9?$AAk?$AAg?$AA?$AA@ 0000000180028128     libucrt:lcidtoname_downlevel.obj
 0002:00007138       ??_C@_1M@KPMILCJG@?$AAl?$AAt?$AA?9?$AAl?$AAt?$AA?$AA@ 0000000180028138     libucrt:lcidtoname_downlevel.obj
 0002:00007148       ??_C@_1M@BDEKKCA@?$AAl?$AAv?$AA?9?$AAl?$AAv?$AA?$AA@ 0000000180028148     libucrt:lcidtoname_downlevel.obj
 0002:00007158       ??_C@_1M@ELCKCCJJ@?$AAm?$AAi?$AA?9?$AAn?$AAz?$AA?$AA@ 0000000180028158     libucrt:lcidtoname_downlevel.obj
 0002:00007168       ??_C@_1M@CBOOLAPA@?$AAm?$AAk?$AA?9?$AAm?$AAk?$AA?$AA@ 0000000180028168     libucrt:lcidtoname_downlevel.obj
 0002:00007178       ??_C@_1M@GPHNBJKN@?$AAm?$AAl?$AA?9?$AAi?$AAn?$AA?$AA@ 0000000180028178     libucrt:lcidtoname_downlevel.obj
 0002:00007188       ??_C@_1M@PABJILIG@?$AAm?$AAn?$AA?9?$AAm?$AAn?$AA?$AA@ 0000000180028188     libucrt:lcidtoname_downlevel.obj
 0002:00007198       ??_C@_1M@FGBKKIPG@?$AAm?$AAr?$AA?9?$AAi?$AAn?$AA?$AA@ 0000000180028198     libucrt:lcidtoname_downlevel.obj
 0002:000071a8       ??_C@_1M@NDBPDDAL@?$AAm?$AAs?$AA?9?$AAb?$AAn?$AA?$AA@ 00000001800281a8     libucrt:lcidtoname_downlevel.obj
 0002:000071b8       ??_C@_1M@OPIHOOPI@?$AAm?$AAs?$AA?9?$AAm?$AAy?$AA?$AA@ 00000001800281b8     libucrt:lcidtoname_downlevel.obj
 0002:000071c8       ??_C@_1M@PPDBCNFM@?$AAm?$AAt?$AA?9?$AAm?$AAt?$AA?$AA@ 00000001800281c8     libucrt:lcidtoname_downlevel.obj
 0002:000071d8       ??_C@_1M@KDJDKMDD@?$AAn?$AAb?$AA?9?$AAn?$AAo?$AA?$AA@ 00000001800281d8     libucrt:lcidtoname_downlevel.obj
 0002:000071e8       ??_C@_1M@KFCFLMJP@?$AAn?$AAl?$AA?9?$AAb?$AAe?$AA?$AA@ 00000001800281e8     libucrt:lcidtoname_downlevel.obj
 0002:000071f8       ??_C@_1M@KPOPDDGO@?$AAn?$AAl?$AA?9?$AAn?$AAl?$AA?$AA@ 00000001800281f8     libucrt:lcidtoname_downlevel.obj
 0002:00007208       ??_C@_1M@LJKPEMLN@?$AAn?$AAn?$AA?9?$AAn?$AAo?$AA?$AA@ 0000000180028208     libucrt:lcidtoname_downlevel.obj
 0002:00007218       ??_C@_1M@BDGHHBFL@?$AAn?$AAs?$AA?9?$AAz?$AAa?$AA?$AA@ 0000000180028218     libucrt:lcidtoname_downlevel.obj
 0002:00007228       ??_C@_1M@IDEHOAP@?$AAp?$AAa?$AA?9?$AAi?$AAn?$AA?$AA@ 0000000180028228     libucrt:lcidtoname_downlevel.obj
 0002:00007238       ??_C@_1M@HDBKGOGH@?$AAp?$AAl?$AA?9?$AAp?$AAl?$AA?$AA@ 0000000180028238     libucrt:lcidtoname_downlevel.obj
 0002:00007248       ??_C@_1M@LJLLCMEH@?$AAp?$AAt?$AA?9?$AAb?$AAr?$AA?$AA@ 0000000180028248     libucrt:lcidtoname_downlevel.obj
 0002:00007258       ??_C@_1M@NCMONAAL@?$AAp?$AAt?$AA?9?$AAp?$AAt?$AA?$AA@ 0000000180028258     libucrt:lcidtoname_downlevel.obj
 0002:00007268       ??_C@_1O@EAKMAJDN@?$AAq?$AAu?$AAz?$AA?9?$AAb?$AAo?$AA?$AA@ 0000000180028268     libucrt:lcidtoname_downlevel.obj
 0002:00007278       ??_C@_1O@BHHPIGDN@?$AAq?$AAu?$AAz?$AA?9?$AAe?$AAc?$AA?$AA@ 0000000180028278     libucrt:lcidtoname_downlevel.obj
 0002:00007288       ??_C@_1O@GBAPEKMJ@?$AAq?$AAu?$AAz?$AA?9?$AAp?$AAe?$AA?$AA@ 0000000180028288     libucrt:lcidtoname_downlevel.obj
 0002:00007298       ??_C@_1M@CLGLEFBO@?$AAr?$AAo?$AA?9?$AAr?$AAo?$AA?$AA@ 0000000180028298     libucrt:lcidtoname_downlevel.obj
 0002:000072a8       ??_C@_1M@CEEDODME@?$AAr?$AAu?$AA?9?$AAr?$AAu?$AA?$AA@ 00000001800282a8     libucrt:lcidtoname_downlevel.obj
 0002:000072b8       ??_C@_1M@HPKKKMPP@?$AAs?$AAa?$AA?9?$AAi?$AAn?$AA?$AA@ 00000001800282b8     libucrt:lcidtoname_downlevel.obj
 0002:000072c8       ??_C@_1M@BKMAIGOJ@?$AAs?$AAe?$AA?9?$AAf?$AAi?$AA?$AA@ 00000001800282c8     libucrt:lcidtoname_downlevel.obj
 0002:000072d8       ??_C@_1M@NDPIFLFI@?$AAs?$AAe?$AA?9?$AAn?$AAo?$AA?$AA@ 00000001800282d8     libucrt:lcidtoname_downlevel.obj
 0002:000072e8       ??_C@_1M@DANKKHJ@?$AAs?$AAe?$AA?9?$AAs?$AAe?$AA?$AA@ 00000001800282e8     libucrt:lcidtoname_downlevel.obj
 0002:000072f8       ??_C@_1M@PNBLONPJ@?$AAs?$AAk?$AA?9?$AAs?$AAk?$AA?$AA@ 00000001800282f8     libucrt:lcidtoname_downlevel.obj
 0002:00007308       ??_C@_1M@LFMODOAL@?$AAs?$AAl?$AA?9?$AAs?$AAi?$AA?$AA@ 0000000180028308     libucrt:lcidtoname_downlevel.obj
 0002:00007318       ??_C@_1O@DFKOMPG@?$AAs?$AAm?$AAa?$AA?9?$AAn?$AAo?$AA?$AA@ 0000000180028318     libucrt:lcidtoname_downlevel.obj
 0002:00007328       ??_C@_1O@NDKPBNNH@?$AAs?$AAm?$AAa?$AA?9?$AAs?$AAe?$AA?$AA@ 0000000180028328     libucrt:lcidtoname_downlevel.obj
 0002:00007338       ??_C@_1O@PLLKBHAB@?$AAs?$AAm?$AAj?$AA?9?$AAn?$AAo?$AA?$AA@ 0000000180028338     libucrt:lcidtoname_downlevel.obj
 0002:00007348       ??_C@_1O@CLEPOGCA@?$AAs?$AAm?$AAj?$AA?9?$AAs?$AAe?$AA?$AA@ 0000000180028348     libucrt:lcidtoname_downlevel.obj
 0002:00007358       ??_C@_1O@DLGJGKMK@?$AAs?$AAm?$AAn?$AA?9?$AAf?$AAi?$AA?$AA@ 0000000180028358     libucrt:lcidtoname_downlevel.obj
 0002:00007368       ??_C@_1O@OJDJGAJC@?$AAs?$AAm?$AAs?$AA?9?$AAf?$AAi?$AA?$AA@ 0000000180028368     libucrt:lcidtoname_downlevel.obj
 0002:00007378       ??_C@_1M@BOFOGHPB@?$AAs?$AAq?$AA?9?$AAa?$AAl?$AA?$AA@ 0000000180028378     libucrt:lcidtoname_downlevel.obj
 0002:00007388       ??_C@_1BG@LJBBIPGB@?$AAs?$AAr?$AA?9?$AAb?$AAa?$AA?9?$AAc?$AAy?$AAr?$AAl?$AA?$AA@ 0000000180028388     libucrt:lcidtoname_downlevel.obj
 0002:000073a0       ??_C@_1BG@JLBENFOE@?$AAs?$AAr?$AA?9?$AAb?$AAa?$AA?9?$AAl?$AAa?$AAt?$AAn?$AA?$AA@ 00000001800283a0     libucrt:lcidtoname_downlevel.obj
 0002:000073b8       ??_C@_1BG@KODPNHE@?$AAs?$AAr?$AA?9?$AAs?$AAp?$AA?9?$AAc?$AAy?$AAr?$AAl?$AA?$AA@ 00000001800283b8     libucrt:lcidtoname_downlevel.obj
 0002:000073d0       ??_C@_1BG@CIOGKHPB@?$AAs?$AAr?$AA?9?$AAs?$AAp?$AA?9?$AAl?$AAa?$AAt?$AAn?$AA?$AA@ 00000001800283d0     libucrt:lcidtoname_downlevel.obj
 0002:000073e8       ??_C@_1M@NGFJLMAC@?$AAs?$AAv?$AA?9?$AAf?$AAi?$AA?$AA@ 00000001800283e8     libucrt:lcidtoname_downlevel.obj
 0002:000073f8       ??_C@_1M@MPJEJAJC@?$AAs?$AAv?$AA?9?$AAs?$AAe?$AA?$AA@ 00000001800283f8     libucrt:lcidtoname_downlevel.obj
 0002:00007408       ??_C@_1M@MPNDHLFK@?$AAs?$AAw?$AA?9?$AAk?$AAe?$AA?$AA@ 0000000180028408     libucrt:lcidtoname_downlevel.obj
 0002:00007418       ??_C@_1O@KOHBJJI@?$AAs?$AAy?$AAr?$AA?9?$AAs?$AAy?$AA?$AA@ 0000000180028418     libucrt:lcidtoname_downlevel.obj
 0002:00007428       ??_C@_1M@LDCEFHA@?$AAt?$AAa?$AA?9?$AAi?$AAn?$AA?$AA@ 0000000180028428     libucrt:lcidtoname_downlevel.obj
 0002:00007438       ??_C@_1M@CNJOFAK@?$AAt?$AAe?$AA?9?$AAi?$AAn?$AA?$AA@ 0000000180028438     libucrt:lcidtoname_downlevel.obj
 0002:00007448       ??_C@_1M@GNAECACD@?$AAt?$AAh?$AA?9?$AAt?$AAh?$AA?$AA@ 0000000180028448     libucrt:lcidtoname_downlevel.obj
 0002:00007458       ??_C@_1M@CHBIHOJO@?$AAt?$AAn?$AA?9?$AAz?$AAa?$AA?$AA@ 0000000180028458     libucrt:lcidtoname_downlevel.obj
 0002:00007468       ??_C@_1M@GCCMIGPJ@?$AAt?$AAr?$AA?9?$AAt?$AAr?$AA?$AA@ 0000000180028468     libucrt:lcidtoname_downlevel.obj
 0002:00007478       ??_C@_1M@CELMCNBK@?$AAt?$AAt?$AA?9?$AAr?$AAu?$AA?$AA@ 0000000180028478     libucrt:lcidtoname_downlevel.obj
 0002:00007488       ??_C@_1M@KLMCELGA@?$AAu?$AAk?$AA?9?$AAu?$AAa?$AA?$AA@ 0000000180028488     libucrt:lcidtoname_downlevel.obj
 0002:00007498       ??_C@_1M@EPAJJAJF@?$AAu?$AAr?$AA?9?$AAp?$AAk?$AA?$AA@ 0000000180028498     libucrt:lcidtoname_downlevel.obj
 0002:000074a8       ??_C@_1BG@GEGPMCDJ@?$AAu?$AAz?$AA?9?$AAu?$AAz?$AA?9?$AAc?$AAy?$AAr?$AAl?$AA?$AA@ 00000001800284a8     libucrt:lcidtoname_downlevel.obj
 0002:000074c0       ??_C@_1BG@EGGKJILM@?$AAu?$AAz?$AA?9?$AAu?$AAz?$AA?9?$AAl?$AAa?$AAt?$AAn?$AA?$AA@ 00000001800284c0     libucrt:lcidtoname_downlevel.obj
 0002:000074d8       ??_C@_1M@GFOCLFF@?$AAv?$AAi?$AA?9?$AAv?$AAn?$AA?$AA@ 00000001800284d8     libucrt:lcidtoname_downlevel.obj
 0002:000074e8       ??_C@_1M@CPAMEDFI@?$AAx?$AAh?$AA?9?$AAz?$AAa?$AA?$AA@ 00000001800284e8     libucrt:lcidtoname_downlevel.obj
 0002:000074f8       ??_C@_1O@EBKIFIGN@?$AAz?$AAh?$AA?9?$AAc?$AAh?$AAs?$AA?$AA@ 00000001800284f8     libucrt:lcidtoname_downlevel.obj
 0002:00007508       ??_C@_1O@NMHPGANE@?$AAz?$AAh?$AA?9?$AAc?$AAh?$AAt?$AA?$AA@ 0000000180028508     libucrt:lcidtoname_downlevel.obj
 0002:00007518       ??_C@_1M@LPINJOMC@?$AAz?$AAh?$AA?9?$AAc?$AAn?$AA?$AA@ 0000000180028518     libucrt:lcidtoname_downlevel.obj
 0002:00007528       ??_C@_1M@OCJEJODD@?$AAz?$AAh?$AA?9?$AAh?$AAk?$AA?$AA@ 0000000180028528     libucrt:lcidtoname_downlevel.obj
 0002:00007538       ??_C@_1M@DNDLJINH@?$AAz?$AAh?$AA?9?$AAm?$AAo?$AA?$AA@ 0000000180028538     libucrt:lcidtoname_downlevel.obj
 0002:00007548       ??_C@_1M@MBFDNDND@?$AAz?$AAh?$AA?9?$AAs?$AAg?$AA?$AA@ 0000000180028548     libucrt:lcidtoname_downlevel.obj
 0002:00007558       ??_C@_1M@IMEPLEPE@?$AAz?$AAh?$AA?9?$AAt?$AAw?$AA?$AA@ 0000000180028558     libucrt:lcidtoname_downlevel.obj
 0002:00007568       ??_C@_1M@BBGHNHJP@?$AAz?$AAu?$AA?9?$AAz?$AAa?$AA?$AA@ 0000000180028568     libucrt:lcidtoname_downlevel.obj
 0002:000077d0       __log10_256_lead           00000001800287d0     libucrt:log10_256_lead_tail_table.obj
 0002:00007fe0       __log10_256_tail           0000000180028fe0     libucrt:log10_256_lead_tail_table.obj
 0002:000087f0       __log_F_inv_qword          00000001800297f0     libucrt:log_f_inv_qword_table.obj
 0002:00009000       ??_C@_05HGHHAHAP@log10?$AA@ 000000018002a000     libucrt:log_special.obj
 0002:00009008       ??_C@_1BA@BALFACEM@?$AAC?$AAO?$AAN?$AAO?$AAU?$AAT?$AA$?$AA?$AA@ 000000018002a008     libucrt:initcon.obj
 0002:00009090       _load_config_used          000000018002a090     LIBCMT:loadcfg.obj
 0002:00009188       ??_R4CImgLoader@@6B@       000000018002a188     ImgCache.obj
 0002:000091b0       ??_R3CImgLoader@@8         000000018002a1b0     ImgCache.obj
 0002:000091c8       ??_R2CImgLoader@@8         000000018002a1c8     ImgCache.obj
 0002:000091e0       ??_R1A@?0A@EA@CImgLoader@@8 000000018002a1e0     ImgCache.obj
 0002:00009208       ??_R1A@?0A@EA@?$CQueueProcessor@PEAUIMAGE_CACHE_INFO@@@@8 000000018002a208     ImgCache.obj
 0002:00009230       ??_R3?$CQueueProcessor@PEAUIMAGE_CACHE_INFO@@@@8 000000018002a230     ImgCache.obj
 0002:00009248       ??_R2?$CQueueProcessor@PEAUIMAGE_CACHE_INFO@@@@8 000000018002a248     ImgCache.obj
 0002:00009258       ??_R4?$CQueueProcessor@PEAUIMAGE_CACHE_INFO@@@@6B@ 000000018002a258     ImgCache.obj
 0002:00009280       ??_R4MToolHelpProcess@@6B@ 000000018002a280     common-kernel64:MProcess.obj
 0002:000092a8       ??_R3MToolHelpProcess@@8   000000018002a2a8     common-kernel64:MProcess.obj
 0002:000092c0       ??_R2MToolHelpProcess@@8   000000018002a2c0     common-kernel64:MProcess.obj
 0002:000092d8       ??_R1A@?0A@EA@MToolHelpProcess@@8 000000018002a2d8     common-kernel64:MProcess.obj
 0002:00009300       ??_R1A@?0A@EA@?$MToolHelp@UtagPROCESSENTRY32W@@$1?Process32FirstW@@YAHPEAXPEAU1@@Z$1?Process32NextW@@YAH01@Z@@8 000000018002a300     common-kernel64:MProcess.obj
 0002:00009328       ??_R3?$MToolHelp@UtagPROCESSENTRY32W@@$1?Process32FirstW@@YAHPEAXPEAU1@@Z$1?Process32NextW@@YAH01@Z@@8 000000018002a328     common-kernel64:MProcess.obj
 0002:00009340       ??_R2?$MToolHelp@UtagPROCESSENTRY32W@@$1?Process32FirstW@@YAHPEAXPEAU1@@Z$1?Process32NextW@@YAH01@Z@@8 000000018002a340     common-kernel64:MProcess.obj
 0002:00009350       ??_R4?$MToolHelp@UtagPROCESSENTRY32W@@$1?Process32FirstW@@YAHPEAXPEAU1@@Z$1?Process32NextW@@YAH01@Z@@6B@ 000000018002a350     common-kernel64:MProcess.obj
 0002:00009378       ??_R4type_info@@6B@        000000018002a378     LIBCMT:std_type_info_static.obj
 0002:000093a0       ??_R3type_info@@8          000000018002a3a0     LIBCMT:std_type_info_static.obj
 0002:000093b8       ??_R2type_info@@8          000000018002a3b8     LIBCMT:std_type_info_static.obj
 0002:000093c8       ??_R1A@?0A@EA@type_info@@8 000000018002a3c8     LIBCMT:std_type_info_static.obj
 0002:000093f0       ??_R4exception@std@@6B@    000000018002a3f0     libvcruntime:frame.obj
 0002:00009418       ??_R3exception@std@@8      000000018002a418     libvcruntime:frame.obj
 0002:00009430       ??_R2exception@std@@8      000000018002a430     libvcruntime:frame.obj
 0002:00009440       ??_R1A@?0A@EA@exception@std@@8 000000018002a440     libvcruntime:frame.obj
 0002:00009468       ??_R4bad_exception@std@@6B@ 000000018002a468     libvcruntime:frame.obj
 0002:00009490       ??_R3bad_exception@std@@8  000000018002a490     libvcruntime:frame.obj
 0002:000094a8       ??_R2bad_exception@std@@8  000000018002a4a8     libvcruntime:frame.obj
 0002:000094c0       ??_R1A@?0A@EA@bad_exception@std@@8 000000018002a4c0     libvcruntime:frame.obj
 0002:00009810       __rtc_iaa                  000000018002a810     LIBCMT:_initsect_.obj
 0002:00009818       __rtc_izz                  000000018002a818     LIBCMT:_initsect_.obj
 0002:00009820       __rtc_taa                  000000018002a820     LIBCMT:_initsect_.obj
 0002:00009828       __rtc_tzz                  000000018002a828     LIBCMT:_initsect_.obj
 0002:0000b068       _TI2?AVbad_exception@std@@ 000000018002c068     libvcruntime:frame.obj
 0002:0000b088       _CTA2?AVbad_exception@std@@ 000000018002c088     libvcruntime:frame.obj
 0002:0000b0a0       _CT??_R0?AVbad_exception@std@@@8??0bad_exception@std@@QEAA@AEBV01@@Z24 000000018002c0a0     libvcruntime:frame.obj
 0002:0000b0c8       _CT??_R0?AVexception@std@@@8??0exception@std@@QEAA@AEBV01@@Z24 000000018002c0c8     libvcruntime:frame.obj
 0002:0000b25c       __IMPORT_DESCRIPTOR_VERSION 000000018002c25c     version:VERSION.dll
 0002:0000b270       __IMPORT_DESCRIPTOR_KERNEL32 000000018002c270     kernel32:KERNEL32.dll
 0002:0000b284       __IMPORT_DESCRIPTOR_USER32 000000018002c284     user32:USER32.dll
 0002:0000b298       __IMPORT_DESCRIPTOR_GDI32  000000018002c298     gdi32:GDI32.dll
 0002:0000b2ac       __IMPORT_DESCRIPTOR_ADVAPI32 000000018002c2ac     advapi32:ADVAPI32.dll
 0002:0000b2c0       __IMPORT_DESCRIPTOR_SHELL32 000000018002c2c0     shell32:SHELL32.dll
 0002:0000b2d4       __IMPORT_DESCRIPTOR_ole32  000000018002c2d4     ole32:ole32.dll
 0002:0000b2e8       __NULL_IMPORT_DESCRIPTOR   000000018002c2e8     version:VERSION.dll
 0003:00000000       ?gbPreloadByDefault@@3HA   000000018002e000     ConEmuTh.obj
 0003:00000010       ?Far3Func@@3PAUExportFunc@@A 000000018002e010     ConEmuTh.obj
 0003:00000058       ?gcrCurColors@@3PEAKEA     000000018002e058     ConEmuTh.obj
 0003:00000060       ?StdPalette@?1??GetStdPalette@Far3Color@@SAPEBKXZ@4PAKA 000000018002e060     ConEmuTh1900.obj
 0003:000000a0       ?guid_ConEmuTh@@3U_GUID@@A 000000018002e0a0     ConEmuTh2800.obj
 0003:000000b0       ?guid_ConEmuThPluginMenu@@3U_GUID@@A 000000018002e0b0     ConEmuTh2800.obj
 0003:000000c0       ?g_TerminatedThreadIdx@@3JA 000000018002e0c0     common-kernel64:WThreads.obj
 0003:000000c8       ?gsInternalCommands@@3PEB_WEB 000000018002e0c8     common-kernel64:CmdLine.obj
 0003:000000d0       __security_cookie_complement 000000018002e0d0     LIBCMT:gs_cookie.obj
 0003:000000d8       __security_cookie          000000018002e0d8     LIBCMT:gs_cookie.obj
 0003:000000e0       __scrt_native_dllmain_reason 000000018002e0e0     LIBCMT:utility.obj
 0003:000000e8       __isa_available            000000018002e0e8     LIBCMT:_cpu_disp_.obj
 0003:000000ec       __isa_enabled              000000018002e0ec     LIBCMT:_cpu_disp_.obj
 0003:000000f0       __memcpy_nt_iters          000000018002e0f0     LIBCMT:_cpu_disp_.obj
 0003:00000110       __abort_behavior           000000018002e110     libucrt:abort.obj
 0003:00000120       __acrt_initial_locale_data 000000018002e120     libucrt:nlsdata.obj
 0003:00000278       __acrt_initial_locale_pointers 000000018002e278     libucrt:nlsdata.obj
 0003:00000288       __acrt_wide_c_locale_string 000000018002e288     libucrt:nlsdata.obj
 0003:00000290       __acrt_initial_multibyte_data 000000018002e290     libucrt:mbctype.obj
 0003:000004b8       __acrt_current_multibyte_data 000000018002e4b8     libucrt:mbctype.obj
 0003:000005c0       _mbctype                   000000018002e5c0     libucrt:mbctype.obj
 0003:000006d0       _mbcasemap                 000000018002e6d0     libucrt:mbctype.obj
 0003:000007d0       _iob                       000000018002e7d0     libucrt:_file.obj
 0003:000008d8       __globallocalestatus       000000018002e8d8     libucrt:glstatus.obj
 0003:000008e0       __acrt_lconv_c             000000018002e8e0     libucrt:localeconv.obj
 0003:00000978       __acrt_lconv_static_decimal 000000018002e978     libucrt:localeconv.obj
 0003:0000097c       __acrt_lconv_static_W_decimal 000000018002e97c     libucrt:localeconv.obj
 0003:00000980       __dcrt_lowio_console_output_handle 000000018002e980     libucrt:initcon.obj
 0003:000009a0       _fltused                   000000018002e9a0     LIBCMT:fltused.obj
 0003:000009b0       ??_R0?AVCImgLoader@@@8     000000018002e9b0     ImgCache.obj
 0003:000009d8       ??_R0?AV?$CQueueProcessor@PEAUIMAGE_CACHE_INFO@@@@@8 000000018002e9d8     ImgCache.obj
 0003:00000a18       ??_R0?AVMToolHelpProcess@@@8 000000018002ea18     common-kernel64:MProcess.obj
 0003:00000a40       ??_R0?AV?$MToolHelp@UtagPROCESSENTRY32W@@$1?Process32FirstW@@YAHPEAXPEAU1@@Z$1?Process32NextW@@YAH01@Z@@@8 000000018002ea40     common-kernel64:MProcess.obj
 0003:00000ab8       ??_R0?AVtype_info@@@8      000000018002eab8     LIBCMT:std_type_info_static.obj
 0003:00000ad8       ??_R0?AVbad_exception@std@@@8 000000018002ead8     libvcruntime:frame.obj
 0003:00000b00       ??_R0?AVexception@std@@@8  000000018002eb00     libvcruntime:frame.obj
 0003:00000b30       ?gbSynchoRedrawPanelRequested@@3_NA 000000018002eb30     ConEmuTh.obj
 0003:00000b31       ?gbConsoleChangesSyncho@@3_NA 000000018002eb31     ConEmuTh.obj
 0003:00000b32       ?gbFadeColors@@3_NA        000000018002eb32     ConEmuTh.obj
 0003:00000b33       ?gbFarPanelsReady@@3_NA    000000018002eb33     ConEmuTh.obj
 0003:00000b34       ?TerminalMode@@3HA         000000018002eb34     ConEmuTh.obj
 0003:00000b38       ?gpLastSynchroArg@@3PEAUConEmuThSynchroArg@@EA 000000018002eb38     ConEmuTh.obj
 0003:00000b40       ?gfRegisterPanelView@@3P6AHPEAUPanelViewInit@@@ZEA 000000018002eb40     ConEmuTh.obj
 0003:00000b48       ?gfGetFarHWND2@@3P6APEAUHWND__@@H@ZEA 000000018002eb48     ConEmuTh.obj
 0003:00000b50       ?gdwModes@@3PAKA           000000018002eb50     ConEmuTh.obj
 0003:00000b58       ?gnMainThreadIdInitial@@3KA 000000018002eb58     ConEmuTh.obj
 0003:00000b5c       ?wScanCodeUp@@3GA          000000018002eb5c     ConEmuTh.obj
 0003:00000b60       ?gsHardLink@@3PA_WA        000000018002eb60     ConEmuTh.obj
 0003:00000be0       ?wScanCodeDown@@3GA        000000018002ebe0     ConEmuTh.obj
 0003:00000be4       ?gnConsoleChanges@@3KA     000000018002ebe4     ConEmuTh.obj
 0003:00000be8       ?gpDbgDlg@@3PEAV?$MFileMapping@Utag_DetectedDialog@@@@EA 000000018002ebe8     ConEmuTh.obj
 0003:00000bf0       ?gbInfoW_OK@@3HA           000000018002ebf0     ConEmuTh.obj
 0003:00000bf4       ?gnSelfPID@@3KA            000000018002ebf4     ConEmuTh.obj
 0003:00000bf8       ?gpImgCache@@3PEAVCImgCache@@EA 000000018002ebf8     ConEmuTh.obj
 0003:00000c00       ?gThSet@@3UPanelViewSetMapping@@A 000000018002ec00     ConEmuTh.obj
 0003:00000e18       ?ghConEmuRoot@@3PEAUHWND__@@EA 000000018002ee18     ConEmuTh.obj
 0003:00000e20       ?gThPal@@3UCESERVER_PALETTE@@A 000000018002ee20     ConEmuTh.obj
 0003:00000ea0       ?ghConEmuWnd@@3PEAUHWND__@@EA 000000018002eea0     ConEmuTh.obj
 0003:00000ea8       ?ghPluginModule@@3PEAUHINSTANCE__@@EA 000000018002eea8     ConEmuTh.obj
 0003:00000eb0       ?gnMainThreadId@@3KA       000000018002eeb0     ConEmuTh.obj
 0003:00000eb4       ?gnDisplayThreadId@@3KA    000000018002eeb4     ConEmuTh.obj
 0003:00000eb8       ?gFarVersion@@3UFarVersion@@A 000000018002eeb8     ConEmuTh.obj
 0003:00000ec4       ?gnWaitForKeySeqTick@@3KA  000000018002eec4     ConEmuTh.obj
 0003:00000ec8       ?ghDisplayThread@@3PEAXEA  000000018002eec8     ConEmuTh.obj
 0003:00000ed0       ?pviLeft@@3UCeFullPanelInfo@@A 000000018002eed0     ConEmuTh.obj
 0003:00001190       ?pviRight@@3UCeFullPanelInfo@@A 000000018002f190     ConEmuTh.obj
 0003:00001450       ?gFarPanelSettings@@3UCEFarPanelSettings@@A 000000018002f450     ConEmuTh.obj
 0003:00001454       ?gFarInterfaceSettings@@3UCEFarInterfaceSettings@@A 000000018002f454     ConEmuTh.obj
 0003:00001458       ?gpRgnDetect@@3PEAVCRgnDetect@@EA 000000018002f458     ConEmuTh.obj
 0003:00001460       ?gsFolder@@3PA_WA          000000018002f460     ConEmuTh.obj
 0003:000014e0       ?gsSymLink@@3PA_WA         000000018002f4e0     ConEmuTh.obj
 0003:00001560       ?gsJunction@@3PA_WA        000000018002f560     ConEmuTh.obj
 0003:000015e0       ?gsTitleThumbs@@3PA_WA     000000018002f5e0     ConEmuTh.obj
 0003:00001660       ?gsTitleTiles@@3PA_WA      000000018002f660     ConEmuTh.obj
 0003:000016e0       ?gFarInfo@@3UCEFAR_INFO_MAPPING@@A 000000018002f6e0     ConEmuTh.obj
 0003:00021a18       ?gnRgnDetectFlags@@3KA     000000018004fa18     ConEmuTh.obj
 0003:00021a20       ?InfoW1900@@3PEAUPluginStartupInfo@@EA 000000018004fa20     ConEmuTh1900.obj
 0003:00021a28       ?FSFW1900@@3PEAUFarStandardFunctions@@EA 000000018004fa28     ConEmuTh1900.obj
 0003:00021a30       ?LastColor@?1??Color2FgIndex@Far3Color@@SAXKAEAGPEBK@Z@4KA 000000018004fa30     ConEmuTh1900.obj
 0003:00021a34       ?LastIndex@?1??Color2FgIndex@Far3Color@@SAXKAEAGPEBK@Z@4HA 000000018004fa34     ConEmuTh1900.obj
 0003:00021a38       ?LastColor@?1??Color2BgIndex@Far3Color@@SAXKHAEAGPEBK@Z@4KA 000000018004fa38     ConEmuTh1900.obj
 0003:00021a3c       ?LastIndex@?1??Color2BgIndex@Far3Color@@SAXKHAEAGPEBK@Z@4HA 000000018004fa3c     ConEmuTh1900.obj
 0003:00021c50       ?InfoW2800@@3PEAUPluginStartupInfo@@EA 000000018004fc50     ConEmuTh2800.obj
 0003:00021c58       ?FSFW2800@@3PEAUFarStandardFunctions@@EA 000000018004fc58     ConEmuTh2800.obj
 0003:00021e70       ?InfoW995@@3PEAUPluginStartupInfo@@EA 000000018004fe70     ConEmuTh995.obj
 0003:00021e78       ?FSFW995@@3PEAUFarStandardFunctions@@EA 000000018004fe78     ConEmuTh995.obj
 0003:00022090       ?InfoA@@3PEAUPluginStartupInfo@@EA 0000000180050090     ConEmuThA.obj
 0003:00022098       ?FSFA@@3PEAUFarStandardFunctions@@EA 0000000180050098     ConEmuThA.obj
 0003:000221b0       ?ghCreateEvent@@3PEAXEA    00000001800501b0     Display.obj
 0003:000221b8       ?gnConEmuFadeMsg@@3IA      00000001800501b8     Display.obj
 0003:000221bc       ?gnConEmuSettingsMsg@@3IA  00000001800501bc     Display.obj
 0003:000221c0       ?gnMapCoordMsg@@3IA        00000001800501c0     Display.obj
 0003:000221c4       ?gbCancelAll@@3HA          00000001800501c4     Display.obj
 0003:000221c8       ?gnCreateViewError@@3HA    00000001800501c8     Display.obj
 0003:000221cc       ?gnWin32Error@@3KA         00000001800501cc     Display.obj
 0003:000221d8       ?ghUpIcon@@3PEAUHICON__@@EA 00000001800501d8     ImgCache.obj
 0003:000221e0       ?ghHeap@@3PEAXEA           00000001800501e0     common-kernel64:Memory.obj
 0003:000221e8       ?g_LastDeletePtr@@3PEAXEA  00000001800501e8     common-kernel64:Memory.obj
 0003:000221f0       ?gbInCommonShutdown@@3HA   00000001800501f0     common-kernel64:Common.obj
 0003:000221f8       ?gNullDesc@@3PEAVMNullDesc@@EA 00000001800501f8     common-kernel64:MSecurity.obj
 0003:00022200       ?gfGetRealConsoleWindow@@3P6APEAUHWND__@@XZEA 0000000180050200     common-kernel64:ConEmuCheck.obj
 0003:00022208       ?gpLocalSecurity@@3PEAU_SECURITY_ATTRIBUTES@@EA 0000000180050208     common-kernel64:ConEmuCheck.obj
 0003:00022210       ?ghWorkingModule@@3_KA     0000000180050210     common-kernel64:ConEmuCheck.obj
 0003:00022264       ?hkFunc@@3UHkFunc@@A       0000000180050264     common-kernel64:HkFunc.obj
 0003:00022270       ?g_ThreadsIdx@@3JA         0000000180050270     common-kernel64:WThreads.obj
 0003:0002aa88       ?gfnSearchAppPaths@@3P6A_NPEB_WAEAUCEStr@@_NPEAU1@@ZEA 0000000180058a88     common-kernel64:WObjects.obj
 0003:0002b010       ?__type_info_root_node@@3U__type_info_node@@A 0000000180059010     LIBCMT:tncleanup.obj
 0003:0002b020       ?_OptionsStorage@?1??__local_stdio_printf_options@@9@4_KA 0000000180059020     LIBCMT:default_local_stdio_options.obj
 0003:0002b028       ?_OptionsStorage@?1??__local_stdio_scanf_options@@9@4_KA 0000000180059028     LIBCMT:default_local_stdio_options.obj
 0003:0002b030       __scrt_current_native_startup_state 0000000180059030     LIBCMT:utility.obj
 0003:0002b038       __scrt_native_startup_lock 0000000180059038     LIBCMT:utility.obj
 0003:0002b074       __scrt_debugger_hook_flag  0000000180059074     LIBCMT:utility_desktop.obj
 0003:0002b078       __favor                    0000000180059078     LIBCMT:_cpu_disp_.obj
 0003:0002b0f8       ?pArgList@UnDecorator@@0PEAVReplicator@@EA 00000001800590f8     libvcruntime:undname.obj
 0003:0002b100       ?pZNameList@UnDecorator@@0PEAVReplicator@@EA 0000000180059100     libvcruntime:undname.obj
 0003:0002b108       ?pTemplateArgList@UnDecorator@@0PEAVReplicator@@EA 0000000180059108     libvcruntime:undname.obj
 0003:0002b110       ?gName@UnDecorator@@0PEBDEB 0000000180059110     libvcruntime:undname.obj
 0003:0002b118       ?name@UnDecorator@@0PEBDEB 0000000180059118     libvcruntime:undname.obj
 0003:0002b120       ?outputString@UnDecorator@@0PEADEA 0000000180059120     libvcruntime:undname.obj
 0003:0002b128       ?maxStringLength@UnDecorator@@0HA 0000000180059128     libvcruntime:undname.obj
 0003:0002b12c       ?disableFlags@UnDecorator@@0KA 000000018005912c     libvcruntime:undname.obj
 0003:0002b130       ?fExplicitTemplateParams@UnDecorator@@0_NA 0000000180059130     libvcruntime:undname.obj
 0003:0002b131       ?fGetTemplateArgumentList@UnDecorator@@0_NA 0000000180059131     libvcruntime:undname.obj
 0003:0002b138       ?m_pGetParameter@UnDecorator@@0P6APEADJ@ZEA 0000000180059138     libvcruntime:undname.obj
 0003:0002b1d8       __pPurecall                00000001800591d8     libvcruntime:purevirt_data.obj
 0003:0002b1e0       ?__WinRTOutOfMemoryExceptionCallback@@3P6APEAXXZEA 00000001800591e0     libvcruntime:ehhelpers.obj
 0003:0002b308       _environ_table             0000000180059308     libucrt:environment_initialization.obj
 0003:0002b310       _wenviron_table            0000000180059310     libucrt:environment_initialization.obj
 0003:0002b318       __dcrt_initial_wide_environment 0000000180059318     libucrt:environment_initialization.obj
 0003:0002b320       __dcrt_initial_narrow_environment 0000000180059320     libucrt:environment_initialization.obj
 0003:0002b328       __acrt_atexit_table        0000000180059328     libucrt:onexit.obj
 0003:0002b340       __acrt_at_quick_exit_table 0000000180059340     libucrt:onexit.obj
 0003:0002b360       __acrt_locale_changed_data 0000000180059360     libucrt:wsetlocale.obj
 0003:0002b368       __acrt_current_locale_data 0000000180059368     libucrt:nlsdata.obj
 0003:0002b724       __mbcodepage               0000000180059724     libucrt:mbctype.obj
 0003:0002b728       __ismbcodepage             0000000180059728     libucrt:mbctype.obj
 0003:0002b730       __mbulinfo                 0000000180059730     libucrt:mbctype.obj
 0003:0002b740       __mblocalename             0000000180059740     libucrt:mbctype.obj
 0003:0002b74c       __argc                     000000018005974c     libucrt:argv_data.obj
 0003:0002b750       __argv                     0000000180059750     libucrt:argv_data.obj
 0003:0002b758       __wargv                    0000000180059758     libucrt:argv_data.obj
 0003:0002b760       _acmdln                    0000000180059760     libucrt:argv_data.obj
 0003:0002b768       _wcmdln                    0000000180059768     libucrt:argv_data.obj
 0003:0002b770       _pgmptr                    0000000180059770     libucrt:argv_data.obj
 0003:0002b778       __acrt_heap                0000000180059778     libucrt:heap_handle.obj
 0003:0002b780       __pioinfo                  0000000180059780     libucrt:ioinit.obj
 0003:0002bb80       _nhandle                   0000000180059b80     libucrt:ioinit.obj
 0003:0002bbb8       __acrt_stdout_buffer       0000000180059bb8     libucrt:_sftbuf.obj
 0003:0002bbc0       __acrt_stderr_buffer       0000000180059bc0     libucrt:_sftbuf.obj
 0003:0002bbd0       _nstream                   0000000180059bd0     libucrt:_file.obj
 0003:0002bbd8       __piob                     0000000180059bd8     libucrt:_file.obj
 0003:0002bbe0       __acrt_lconv_static_null   0000000180059be0     libucrt:localeconv.obj
 0003:0002bbe4       __acrt_lconv_static_W_null 0000000180059be4     libucrt:localeconv.obj
 0003:0002bbec       __fma3_is_available        0000000180059bec     libucrt:fma3_available.obj
 0003:0002bbf0       __use_fma3_lib             0000000180059bf0     libucrt:fma3_available.obj
 0003:0002bbf4       __scrt_ucrt_dll_is_in_use  0000000180059bf4     <common>
 0003:0002bbf8       __dyn_tls_init_callback    0000000180059bf8     <common>

 entry point at        0001:00013d4c

 Static symbols

 0000:fffa1000       .debug$S                   0000000180000000     gdi32:GDI32.dll
 0000:fffa1000       .debug$S                   0000000180000000     gdi32:GDI32.dll
 0000:fffa1000       .debug$S                   0000000180000000     gdi32:GDI32.dll
 0000:fffa1000       .debug$S                   0000000180000000     gdi32:GDI32.dll
 0000:fffa1000       .debug$S                   0000000180000000     shell32:SHELL32.dll
 0000:fffa1000       .debug$S                   0000000180000000     ConEmuTh.x64.exp
 0000:fffa1000       .debug$S                   0000000180000000     gdi32:GDI32.dll
 0000:fffa1000       .debug$S                   0000000180000000     gdi32:GDI32.dll
 0000:fffa1000       .debug$S                   0000000180000000     gdi32:GDI32.dll
 0000:fffa1000       .debug$S                   0000000180000000     gdi32:GDI32.dll
 0000:fffa1000       .debug$S                   0000000180000000     gdi32:GDI32.dll
 0000:fffa1000       .debug$S                   0000000180000000     gdi32:GDI32.dll
 0000:fffa1000       .debug$S                   0000000180000000     advapi32:ADVAPI32.dll
 0000:fffa1000       .debug$S                   0000000180000000     advapi32:ADVAPI32.dll
 0000:fffa1000       .debug$S                   0000000180000000     gdi32:GDI32.dll
 0000:fffa1000       .debug$S                   0000000180000000     gdi32:GDI32.dll
 0000:fffa1000       .debug$S                   0000000180000000     advapi32:ADVAPI32.dll
 0000:fffa1000       .debug$S                   0000000180000000     gdi32:GDI32.dll
 0000:fffa1000       .debug$S                   0000000180000000     advapi32:ADVAPI32.dll
 0000:fffa1000       .debug$S                   0000000180000000     advapi32:ADVAPI32.dll
 0000:fffa1000       .debug$S                   0000000180000000     gdi32:GDI32.dll
 0000:fffa1000       .debug$S                   0000000180000000     advapi32:ADVAPI32.dll
 0000:fffa1000       .debug$S                   0000000180000000     advapi32:ADVAPI32.dll
 0000:fffa1000       .debug$S                   0000000180000000     user32:USER32.dll
 0000:fffa1000       .debug$S                   0000000180000000     user32:USER32.dll
 0000:fffa1000       .debug$S                   0000000180000000     user32:USER32.dll
 0000:fffa1000       .debug$S                   0000000180000000     user32:USER32.dll
 0000:fffa1000       .debug$S                   0000000180000000     user32:USER32.dll
 0000:fffa1000       .debug$S                   0000000180000000     user32:USER32.dll
 0000:fffa1000       .debug$S                   0000000180000000     user32:USER32.dll
 0000:fffa1000       .debug$S                   0000000180000000     user32:USER32.dll
 0000:fffa1000       .debug$S                   0000000180000000     user32:USER32.dll
 0000:fffa1000       .debug$S                   0000000180000000     user32:USER32.dll
 0000:fffa1000       .debug$S                   0000000180000000     user32:USER32.dll
 0000:fffa1000       .debug$S                   0000000180000000     user32:USER32.dll
 0000:fffa1000       .debug$S                   0000000180000000     user32:USER32.dll
 0000:fffa1000       .debug$S                   0000000180000000     user32:USER32.dll
 0000:fffa1000       .debug$S                   0000000180000000     user32:USER32.dll
 0000:fffa1000       .debug$S                   0000000180000000     user32:USER32.dll
 0000:fffa1000       .debug$S                   0000000180000000     user32:USER32.dll
 0000:fffa1000       .debug$S                   0000000180000000     user32:USER32.dll
 0000:fffa1000       .debug$S                   0000000180000000     user32:USER32.dll
 0000:fffa1000       .debug$S                   0000000180000000     user32:USER32.dll
 0000:fffa1000       .debug$S                   0000000180000000     user32:USER32.dll
 0000:fffa1000       .debug$S                   0000000180000000     user32:USER32.dll
 0000:fffa1000       .debug$S                   0000000180000000     user32:USER32.dll
 0000:fffa1000       .debug$S                   0000000180000000     user32:USER32.dll
 0000:fffa1000       .debug$S                   0000000180000000     user32:USER32.dll
 0000:fffa1000       .debug$S                   0000000180000000     user32:USER32.dll
 0000:fffa1000       .debug$S                   0000000180000000     advapi32:ADVAPI32.dll
 0000:fffa1000       .debug$S                   0000000180000000     advapi32:ADVAPI32.dll
 0000:fffa1000       .debug$S                   0000000180000000     user32:USER32.dll
 0000:fffa1000       .debug$S                   0000000180000000     advapi32:ADVAPI32.dll
 0000:fffa1000       .debug$S                   0000000180000000     user32:USER32.dll
 0000:fffa1000       .debug$S                   0000000180000000     user32:USER32.dll
 0000:fffa1000       .debug$S                   0000000180000000     user32:USER32.dll
 0000:fffa1000       .debug$S                   0000000180000000     user32:USER32.dll
 0000:fffa1000       .debug$S                   0000000180000000     user32:USER32.dll
 0000:fffa1000       .debug$S                   0000000180000000     user32:USER32.dll
 0000:fffa1000       .debug$S                   0000000180000000     user32:USER32.dll
 0000:fffa1000       .debug$S                   0000000180000000     user32:USER32.dll
 0000:fffa1000       .debug$S                   0000000180000000     user32:USER32.dll
 0000:fffa1000       .debug$S                   0000000180000000     user32:USER32.dll
 0000:fffa1000       .debug$S                   0000000180000000     user32:USER32.dll
 0000:fffa1000       .debug$S                   0000000180000000     user32:USER32.dll
 0000:fffa1000       .debug$S                   0000000180000000     advapi32:ADVAPI32.dll
 0000:fffa1000       .debug$S                   0000000180000000     advapi32:ADVAPI32.dll
 0000:fffa1000       .debug$S                   0000000180000000     gdi32:GDI32.dll
 0000:fffa1000       .debug$S                   0000000180000000     user32:USER32.dll
 0000:fffa1000       .debug$S                   0000000180000000     gdi32:GDI32.dll
 0000:fffa1000       .debug$S                   0000000180000000     user32:USER32.dll
 0000:fffa1000       .debug$S                   0000000180000000     user32:USER32.dll
 0000:fffa1000       .debug$S                   0000000180000000     user32:USER32.dll
 0000:fffa1000       .debug$S                   0000000180000000     user32:USER32.dll
 0000:fffa1000       .debug$S                   0000000180000000     user32:USER32.dll
 0000:fffa1000       .debug$S                   0000000180000000     user32:USER32.dll
 0000:fffa1000       .debug$S                   0000000180000000     gdi32:GDI32.dll
 0000:fffa1000       .debug$S                   0000000180000000     kernel32:KERNEL32.dll
 0000:fffa1000       .debug$S                   0000000180000000     kernel32:KERNEL32.dll
 0000:fffa1000       .debug$S                   0000000180000000     kernel32:KERNEL32.dll
 0000:fffa1000       .debug$S                   0000000180000000     kernel32:KERNEL32.dll
 0000:fffa1000       .debug$S                   0000000180000000     kernel32:KERNEL32.dll
 0000:fffa1000       .debug$S                   0000000180000000     kernel32:KERNEL32.dll
 0000:fffa1000       .debug$S                   0000000180000000     kernel32:KERNEL32.dll
 0000:fffa1000       .debug$S                   0000000180000000     kernel32:KERNEL32.dll
 0000:fffa1000       .debug$S                   0000000180000000     kernel32:KERNEL32.dll
 0000:fffa1000       .debug$S                   0000000180000000     kernel32:KERNEL32.dll
 0000:fffa1000       .debug$S                   0000000180000000     gdi32:GDI32.dll
 0000:fffa1000       .debug$S                   0000000180000000     kernel32:KERNEL32.dll
 0000:fffa1000       .debug$S                   0000000180000000     gdi32:GDI32.dll
 0000:fffa1000       .debug$S                   0000000180000000     kernel32:KERNEL32.dll
 0000:fffa1000       .debug$S                   0000000180000000     kernel32:KERNEL32.dll
 0000:fffa1000       .debug$S                   0000000180000000     kernel32:KERNEL32.dll
 0000:fffa1000       .debug$S                   0000000180000000     gdi32:GDI32.dll
 0000:fffa1000       .debug$S                   0000000180000000     version:VERSION.dll
 0000:fffa1000       .debug$S                   0000000180000000     kernel32:KERNEL32.dll
 0000:fffa1000       .debug$S                   0000000180000000     version:VERSION.dll
 0000:fffa1000       .debug$S                   0000000180000000     kernel32:KERNEL32.dll
 0000:fffa1000       .debug$S                   0000000180000000     kernel32:KERNEL32.dll
 0000:fffa1000       .debug$S                   0000000180000000     kernel32:KERNEL32.dll
 0000:fffa1000       .debug$S                   0000000180000000     kernel32:KERNEL32.dll
 0000:fffa1000       .debug$S                   0000000180000000     kernel32:KERNEL32.dll
 0000:fffa1000       .debug$S                   0000000180000000     kernel32:KERNEL32.dll
 0000:fffa1000       .debug$S                   0000000180000000     kernel32:KERNEL32.dll
 0000:fffa1000       .debug$S                   0000000180000000     kernel32:KERNEL32.dll
 0000:fffa1000       .debug$S                   0000000180000000     version:VERSION.dll
 0000:fffa1000       .debug$S                   0000000180000000     kernel32:KERNEL32.dll
 0000:fffa1000       .debug$S                   0000000180000000     kernel32:KERNEL32.dll
 0000:fffa1000       .debug$S                   0000000180000000     kernel32:KERNEL32.dll
 0000:fffa1000       .debug$S                   0000000180000000     kernel32:KERNEL32.dll
 0000:fffa1000       .debug$S                   0000000180000000     kernel32:KERNEL32.dll
 0000:fffa1000       .debug$S                   0000000180000000     gdi32:GDI32.dll
 0000:fffa1000       .debug$S                   0000000180000000     kernel32:KERNEL32.dll
 0000:fffa1000       .debug$S                   0000000180000000     kernel32:KERNEL32.dll
 0000:fffa1000       .debug$S                   0000000180000000     kernel32:KERNEL32.dll
 0000:fffa1000       .debug$S                   0000000180000000     kernel32:KERNEL32.dll
 0000:fffa1000       .debug$S                   0000000180000000     kernel32:KERNEL32.dll
 0000:fffa1000       .debug$S                   0000000180000000     kernel32:KERNEL32.dll
 0000:fffa1000       .debug$S                   0000000180000000     kernel32:KERNEL32.dll
 0000:fffa1000       .debug$S                   0000000180000000     kernel32:KERNEL32.dll
 0000:fffa1000       .debug$S                   0000000180000000     kernel32:KERNEL32.dll
 0000:fffa1000       .debug$S                   0000000180000000     kernel32:KERNEL32.dll
 0000:fffa1000       .debug$S                   0000000180000000     kernel32:KERNEL32.dll
 0000:fffa1000       .debug$S                   0000000180000000     kernel32:KERNEL32.dll
 0000:fffa1000       .debug$S                   0000000180000000     kernel32:KERNEL32.dll
 0000:fffa1000       .debug$S                   0000000180000000     kernel32:KERNEL32.dll
 0000:fffa1000       .debug$S                   0000000180000000     kernel32:KERNEL32.dll
 0000:fffa1000       .debug$S                   0000000180000000     kernel32:KERNEL32.dll
 0000:fffa1000       .debug$S                   0000000180000000     kernel32:KERNEL32.dll
 0000:fffa1000       .debug$S                   0000000180000000     kernel32:KERNEL32.dll
 0000:fffa1000       .debug$S                   0000000180000000     kernel32:KERNEL32.dll
 0000:fffa1000       .debug$S                   0000000180000000     kernel32:KERNEL32.dll
 0000:fffa1000       .debug$S                   0000000180000000     kernel32:KERNEL32.dll
 0000:fffa1000       .debug$S                   0000000180000000     kernel32:KERNEL32.dll
 0000:fffa1000       .debug$S                   0000000180000000     kernel32:KERNEL32.dll
 0000:fffa1000       .debug$S                   0000000180000000     kernel32:KERNEL32.dll
 0000:fffa1000       .debug$S                   0000000180000000     kernel32:KERNEL32.dll
 0000:fffa1000       .debug$S                   0000000180000000     kernel32:KERNEL32.dll
 0000:fffa1000       .debug$S                   0000000180000000     kernel32:KERNEL32.dll
 0000:fffa1000       .debug$S                   0000000180000000     kernel32:KERNEL32.dll
 0000:fffa1000       .debug$S                   0000000180000000     kernel32:KERNEL32.dll
 0000:fffa1000       .debug$S                   0000000180000000     kernel32:KERNEL32.dll
 0000:fffa1000       .debug$S                   0000000180000000     kernel32:KERNEL32.dll
 0000:fffa1000       .debug$S                   0000000180000000     kernel32:KERNEL32.dll
 0000:fffa1000       .debug$S                   0000000180000000     kernel32:KERNEL32.dll
 0000:fffa1000       .debug$S                   0000000180000000     kernel32:KERNEL32.dll
 0000:fffa1000       .debug$S                   0000000180000000     kernel32:KERNEL32.dll
 0000:fffa1000       .debug$S                   0000000180000000     kernel32:KERNEL32.dll
 0000:fffa1000       .debug$S                   0000000180000000     kernel32:KERNEL32.dll
 0000:fffa1000       .debug$S                   0000000180000000     kernel32:KERNEL32.dll
 0000:fffa1000       .debug$S                   0000000180000000     kernel32:KERNEL32.dll
 0000:fffa1000       .debug$S                   0000000180000000     kernel32:KERNEL32.dll
 0000:fffa1000       .debug$S                   0000000180000000     kernel32:KERNEL32.dll
 0000:fffa1000       .debug$S                   0000000180000000     kernel32:KERNEL32.dll
 0000:fffa1000       .debug$S                   0000000180000000     kernel32:KERNEL32.dll
 0000:fffa1000       .debug$S                   0000000180000000     kernel32:KERNEL32.dll
 0000:fffa1000       .debug$S                   0000000180000000     kernel32:KERNEL32.dll
 0000:fffa1000       .debug$S                   0000000180000000     ole32:ole32.dll
 0000:fffa1000       .debug$S                   0000000180000000     kernel32:KERNEL32.dll
 0000:fffa1000       .debug$S                   0000000180000000     kernel32:KERNEL32.dll
 0000:fffa1000       .debug$S                   0000000180000000     kernel32:KERNEL32.dll
 0000:fffa1000       .debug$S                   0000000180000000     kernel32:KERNEL32.dll
 0000:fffa1000       .debug$S                   0000000180000000     kernel32:KERNEL32.dll
 0000:fffa1000       .debug$S                   0000000180000000     kernel32:KERNEL32.dll
 0000:fffa1000       .debug$S                   0000000180000000     kernel32:KERNEL32.dll
 0000:fffa1000       .debug$S                   0000000180000000     kernel32:KERNEL32.dll
 0000:fffa1000       .debug$S                   0000000180000000     kernel32:KERNEL32.dll
 0000:fffa1000       .debug$S                   0000000180000000     kernel32:KERNEL32.dll
 0000:fffa1000       .debug$S                   0000000180000000     kernel32:KERNEL32.dll
 0000:fffa1000       .debug$S                   0000000180000000     kernel32:KERNEL32.dll
 0000:fffa1000       .debug$S                   0000000180000000     kernel32:KERNEL32.dll
 0000:fffa1000       .debug$S                   0000000180000000     kernel32:KERNEL32.dll
 0000:fffa1000       .debug$S                   0000000180000000     kernel32:KERNEL32.dll
 0000:fffa1000       .debug$S                   0000000180000000     kernel32:KERNEL32.dll
 0000:fffa1000       .debug$S                   0000000180000000     kernel32:KERNEL32.dll
 0000:fffa1000       .debug$S                   0000000180000000     kernel32:KERNEL32.dll
 0000:fffa1000       .debug$S                   0000000180000000     kernel32:KERNEL32.dll
 0000:fffa1000       .debug$S                   0000000180000000     kernel32:KERNEL32.dll
 0000:fffa1000       .debug$S                   0000000180000000     kernel32:KERNEL32.dll
 0000:fffa1000       .debug$S                   0000000180000000     kernel32:KERNEL32.dll
 0000:fffa1000       .debug$S                   0000000180000000     kernel32:KERNEL32.dll
 0000:fffa1000       .debug$S                   0000000180000000     kernel32:KERNEL32.dll
 0000:fffa1000       .debug$S                   0000000180000000     kernel32:KERNEL32.dll
 0000:fffa1000       .debug$S                   0000000180000000     ole32:ole32.dll
 0000:fffa1000       .debug$S                   0000000180000000     kernel32:KERNEL32.dll
 0000:fffa1000       .debug$S                   0000000180000000     kernel32:KERNEL32.dll
 0000:fffa1000       .debug$S                   0000000180000000     kernel32:KERNEL32.dll
 0000:fffa1000       .debug$S                   0000000180000000     kernel32:KERNEL32.dll
 0000:fffa1000       .debug$S                   0000000180000000     kernel32:KERNEL32.dll
 0000:fffa1000       .debug$S                   0000000180000000     kernel32:KERNEL32.dll
 0000:fffa1000       .debug$S                   0000000180000000     kernel32:KERNEL32.dll
 0000:fffa1000       .debug$S                   0000000180000000     kernel32:KERNEL32.dll
 0000:fffa1000       .debug$S                   0000000180000000     kernel32:KERNEL32.dll
 0000:fffa1000       .debug$S                   0000000180000000     kernel32:KERNEL32.dll
 0000:fffa1000       .debug$S                   0000000180000000     kernel32:KERNEL32.dll
 0000:fffa1000       .debug$S                   0000000180000000     kernel32:KERNEL32.dll
 0000:fffa1000       .debug$S                   0000000180000000     kernel32:KERNEL32.dll
 0000:fffa1000       .debug$S                   0000000180000000     kernel32:KERNEL32.dll
 0000:fffa1000       .debug$S                   0000000180000000     kernel32:KERNEL32.dll
 0000:fffa1000       .debug$S                   0000000180000000     kernel32:KERNEL32.dll
 0000:fffa1000       .debug$S                   0000000180000000     kernel32:KERNEL32.dll
 0000:fffa1000       .debug$S                   0000000180000000     kernel32:KERNEL32.dll
 0000:fffa1000       .debug$S                   0000000180000000     kernel32:KERNEL32.dll
 0000:fffa1000       .debug$S                   0000000180000000     kernel32:KERNEL32.dll
 0000:fffa1000       .debug$S                   0000000180000000     kernel32:KERNEL32.dll
 0000:fffa1000       .debug$S                   0000000180000000     kernel32:KERNEL32.dll
 0000:fffa1000       .debug$S                   0000000180000000     kernel32:KERNEL32.dll
 0000:fffa1000       .debug$S                   0000000180000000     kernel32:KERNEL32.dll
 0000:fffa1000       .debug$S                   0000000180000000     kernel32:KERNEL32.dll
 0000:fffa1000       .debug$S                   0000000180000000     kernel32:KERNEL32.dll
 0000:fffa1000       .debug$S                   0000000180000000     kernel32:KERNEL32.dll
 0000:fffa1000       .debug$S                   0000000180000000     kernel32:KERNEL32.dll
 0000:fffa1000       .debug$S                   0000000180000000     kernel32:KERNEL32.dll
 0000:fffa1000       .debug$S                   0000000180000000     kernel32:KERNEL32.dll
 0000:fffa1000       .debug$S                   0000000180000000     kernel32:KERNEL32.dll
 0000:fffa1000       .debug$S                   0000000180000000     kernel32:KERNEL32.dll
 0000:fffa1000       .debug$S                   0000000180000000     kernel32:KERNEL32.dll
 0000:fffa1000       .debug$S                   0000000180000000     kernel32:KERNEL32.dll
 0000:fffa1000       .debug$S                   0000000180000000     kernel32:KERNEL32.dll
 0000:fffa1000       .debug$S                   0000000180000000     kernel32:KERNEL32.dll
 0000:fffa1000       .debug$S                   0000000180000000     kernel32:KERNEL32.dll
 0000:fffa1000       .debug$S                   0000000180000000     kernel32:KERNEL32.dll
 0000:fffa1000       .debug$S                   0000000180000000     kernel32:KERNEL32.dll
 0000:fffa1000       .debug$S                   0000000180000000     kernel32:KERNEL32.dll
 0000:fffa1000       .debug$S                   0000000180000000     kernel32:KERNEL32.dll
 0000:fffa1000       .debug$S                   0000000180000000     kernel32:KERNEL32.dll
 0000:fffa1000       .debug$S                   0000000180000000     kernel32:KERNEL32.dll
 0000:fffa1000       .debug$S                   0000000180000000     kernel32:KERNEL32.dll
 0000:fffa1000       .debug$S                   0000000180000000     kernel32:KERNEL32.dll
 0000:fffa1000       .debug$S                   0000000180000000     kernel32:KERNEL32.dll
 0000:fffa1000       .debug$S                   0000000180000000     kernel32:KERNEL32.dll
 0000:fffa1000       .debug$S                   0000000180000000     kernel32:KERNEL32.dll
 0000:fffa1000       .debug$S                   0000000180000000     kernel32:KERNEL32.dll
 0000:fffa1000       .debug$S                   0000000180000000     kernel32:KERNEL32.dll
 0000:fffa1000       .debug$S                   0000000180000000     kernel32:KERNEL32.dll
 0000:fffa1000       .debug$S                   0000000180000000     kernel32:KERNEL32.dll
 0000:fffa1000       .debug$S                   0000000180000000     kernel32:KERNEL32.dll
 0000:fffa1000       .debug$S                   0000000180000000     kernel32:KERNEL32.dll
 0000:fffa1000       .debug$S                   0000000180000000     kernel32:KERNEL32.dll
 0000:fffa1000       .debug$S                   0000000180000000     kernel32:KERNEL32.dll
 0000:fffa1000       .debug$S                   0000000180000000     kernel32:KERNEL32.dll
 0001:00000108       ?ChangeExports@@YA_NPEBUExportFunc@@PEAUHINSTANCE__@@@Z 0000000180001108 f   ConEmuTh.obj
 0001:00001230       ?LoadFarVersion@@YA_NAEAUFarVersion@@AEAY0CAA@_W@Z 0000000180002230 f   ConEmuTh.obj
 0001:00001348       ?LoadModuleVersion@@YA_NPEB_WAEAUtagVS_FIXEDFILEINFO@@PEA_W_K@Z 0000000180002348 f   ConEmuTh.obj
 0001:00003298       ?GetFarSetting@@YAHPEAX_KPEB_W@Z 0000000180004298 f   ConEmuTh1900.obj
 0001:00003384       ?LoadFarSettingsW1900@@YAXPEAUCEFarInterfaceSettings@@PEAUCEFarPanelSettings@@@Z 0000000180004384 f   ConEmuTh1900.obj
 0001:0000469c       ?GetFarSetting@@YAHPEAX_KPEB_W@Z 000000018000569c f   ConEmuTh2800.obj
 0001:00004790       ?LoadFarSettingsW2800@@YAXPEAUCEFarInterfaceSettings@@PEAUCEFarPanelSettings@@@Z 0000000180005790 f   ConEmuTh2800.obj
 0001:00005dc4       ?LoadFarSettingsW995@@YAXPEAUCEFarInterfaceSettings@@PEAUCEFarPanelSettings@@@Z 0000000180006dc4 f   ConEmuTh995.obj
 0001:00006b10       ?LoadFarSettingsA@@YAXPEAUCEFarInterfaceSettings@@PEAUCEFarPanelSettings@@@Z 0000000180007b10 f   ConEmuThA.obj
 0001:0000e5b4       ?compare@cmp@?1??Find@MToolHelpProcess@@QEAA_NKPEAUtagPROCESSENTRY32W@@@Z@SA_N0_J@Z 000000018000f5b4 f   common-kernel64:MProcess.obj
 0001:000139b0       $$000000                   00000001800149b0     LIBCMT:_amdsecgs_.obj
 0001:00013a10       ?dllmain_crt_dispatch@@YAHQEAUHINSTANCE__@@KQEAX@Z 0000000180014a10 f   LIBCMT:dll_dllmain.obj
 0001:00013a60       ?dllmain_crt_process_attach@@YAHQEAUHINSTANCE__@@QEAX@Z 0000000180014a60 f   LIBCMT:dll_dllmain.obj
 0001:00013b74       ?dllmain_crt_process_detach@@YAH_N@Z 0000000180014b74 f   LIBCMT:dll_dllmain.obj
 0001:00013c00       ?dllmain_dispatch@@YAHQEAUHINSTANCE__@@KQEAX@Z 0000000180014c00 f   LIBCMT:dll_dllmain.obj
 0001:00013cf8       ?dllmain_raw@@YAHQEAUHINSTANCE__@@KQEAX@Z 0000000180014cf8 f   LIBCMT:dll_dllmain.obj
 0001:00013f44       capture_current_context    0000000180014f44 f   LIBCMT:gs_report.obj
 0001:00013fb4       capture_previous_context   0000000180014fb4 f   LIBCMT:gs_report.obj
 0001:00014870       $$000000                   0000000180015870     libvcruntime:memcpy.obj
 0001:00014917       MoveSmall                  0000000180015917     libvcruntime:memcpy.obj
 0001:00015360       $$000000                   0000000180016360     libvcruntime:memcmp.obj
 0001:00015440       $$000000                   0000000180016440     libvcruntime:memset.obj
 0001:0001553c       MsetTab                    000000018001653c     libvcruntime:memset.obj
 0001:00015a60       $$000000                   0000000180016a60     libvcruntime:memchr.obj
 0001:00015f68       ?CatchIt@@YAXPEAUEHExceptionRecord@@PEA_KPEAU_CONTEXT@@PEAU_xDISPATCHER_CONTEXT@@PEBU_s_FuncInfo@@PEBU_s_HandlerType@@PEBU_s_CatchableType@@PEBU_s_TryBlockMapEntry@@H1EE@Z 0000000180016f68 f   libvcruntime:frame.obj
 0001:0001602c       ?ExFilterRethrow@@YAHPEAU_EXCEPTION_POINTERS@@PEAUEHExceptionRecord@@PEAH@Z 000000018001702c f   libvcruntime:frame.obj
 0001:000160b4       ?FindHandler@@YAXPEAUEHExceptionRecord@@PEA_KPEAU_CONTEXT@@PEAU_xDISPATCHER_CONTEXT@@PEBU_s_FuncInfo@@EH1@Z 00000001800170b4 f   libvcruntime:frame.obj
 0001:00016584       ?FindHandlerForForeignException@@YAXPEAUEHExceptionRecord@@PEA_KPEAU_CONTEXT@@PEAU_xDISPATCHER_CONTEXT@@PEBU_s_FuncInfo@@HH1@Z 0000000180017584 f   libvcruntime:frame.obj
 0001:000167f0       ?IsInExceptionSpec@@YAEPEAUEHExceptionRecord@@PEBU_s_ESTypeList@@@Z 00000001800177f0 f   libvcruntime:frame.obj
 0001:000172b0       $$000000                   00000001800182b0     libvcruntime:_jmpuwind_.obj
 0001:000173dc       ?try_get_function@@YAPEAXW4function_id@?A0x2db55455@@QEBDQEBW4module_id@2@2@Z 00000001800183dc f   libvcruntime:winapi_downlevel.obj
 0001:00017840       $$000000                   0000000180018840     libvcruntime:handlers.obj
 0001:00017ea8       ?atexit_exception_filter@@YAHK@Z 0000000180018ea8 f   libucrt:exit.obj
 0001:00017eb4       ?common_exit@@YAXHW4_crt_exit_cleanup_mode@@W4_crt_exit_return_mode@@@Z 0000000180018eb4 f   libucrt:exit.obj
 0001:00018020       ?exit_or_terminate_process@@YAXI@Z 0000000180019020 f   libucrt:exit.obj
 0001:0001806c       ?try_cor_exit_process@@YAXI@Z 000000018001906c f   libucrt:exit.obj
 0001:00018104       ??$parse_command_line@D@@YAXPEADPEAPEAD0PEA_K2@Z 0000000180019104 f   libucrt:argv_parsing.obj
 0001:0001849c       ??$common_initialize_environment_nolock@D@@YAHXZ 000000018001949c f   libucrt:environment_initialization.obj
 0001:00018508       ??$create_environment@D@@YAQEAPEADQEAD@Z 0000000180019508 f   libucrt:environment_initialization.obj
 0001:00018604       ??$free_environment@D@@YAXQEAPEAD@Z 0000000180019604 f   libucrt:environment_initialization.obj
 0001:00018604       ??$free_environment@_W@@YAXQEAPEA_W@Z 0000000180019604 f   libucrt:environment_initialization.obj
 0001:00018648       ??$uninitialize_environment_internal@D@@YAXAEAPEAPEAD@Z 0000000180019648 f   libucrt:environment_initialization.obj
 0001:00018664       ??$uninitialize_environment_internal@_W@@YAXAEAPEAPEA_W@Z 0000000180019664 f   libucrt:environment_initialization.obj
 0001:000188dc       initialize_global_variables 00000001800198dc f   libucrt:initialization.obj
 0001:000188f0       initialize_c               00000001800198f0 f   libucrt:initialization.obj
 0001:00018914       uninitialize_environment   0000000180019914 f   libucrt:initialization.obj
 0001:00018924       initialize_environment     0000000180019924 f   libucrt:initialization.obj
 0001:00018924       report_memory_leaks        0000000180019924 f   libucrt:initialization.obj
 0001:00018924       uninitialize_c             0000000180019924 f   libucrt:initialization.obj
 0001:00018924       initialize_global_state_isolation 0000000180019924 f   libucrt:initialization.obj
 0001:00018924       uninitialize_global_state_isolation 0000000180019924 f   libucrt:initialization.obj
 0001:00018928       initialize_pointers        0000000180019928 f   libucrt:initialization.obj
 0001:0001897c       uninitialize_vcruntime     000000018001997c f   libucrt:initialization.obj
 0001:00018984       uninitialize_allocated_memory 0000000180019984 f   libucrt:initialization.obj
 0001:0001911c       ?construct_ptd_array@@YAXQEAU__acrt_ptd@@@Z 000000018001a11c f   libucrt:per_thread_data.obj
 0001:000191ec       ?destroy_fls@@YAXPEAX@Z    000000018001a1ec f   libucrt:per_thread_data.obj
 0001:0001920c       ?destroy_ptd_array@@YAXQEAU__acrt_ptd@@@Z 000000018001a20c f   libucrt:per_thread_data.obj
 0001:00019304       ?replace_current_thread_locale_nolock@@YAXQEAU__acrt_ptd@@QEAU__crt_locale_data@@@Z 000000018001a304 f   libucrt:per_thread_data.obj
 0001:000196b8       ?try_get_function@@YAPEAXW4function_id@?A0x63058377@@QEBDQEBW4module_id@2@2@Z 000000018001a6b8 f   libucrt:winapi_thunks.obj
 0001:00019c9c       ?<helper_func_cdecl>@<lambda_2feae5270eb4d0d5532525f423405775>@@CAHPEBX0@Z 000000018001ac9c f   libucrt:argv_wildcards.obj
 0001:00019cb0       ??$common_expand_argv_wildcards@D@@YAHQEAPEADQEAPEAPEAD@Z 000000018001acb0 f   libucrt:argv_wildcards.obj
 0001:00019ebc       ??$copy_and_add_argument_to_buffer@D@@YAHQEBD0_KAEAV?$argument_list@D@?A0xca0879c4@@@Z 000000018001aebc f   libucrt:argv_wildcards.obj
 0001:00019fcc       ??$expand_argument_wildcards@D@@YAHQEAD0AEAV?$argument_list@D@?A0xca0879c4@@@Z 000000018001afcc f   libucrt:argv_wildcards.obj
 0001:0001a280       ??R<lambda_ad1ced32f4ac17aa236e5ef05d6b3b7c>@@QEBAXXZ 000000018001b280 f   libucrt:mbctype.obj
 0001:0001a498       ?getSystemCP@@YAHH@Z       000000018001b498 f   libucrt:mbctype.obj
 0001:0001a518       ?setSBCS@@YAXPEAU__crt_multibyte_data@@@Z 000000018001b518 f   libucrt:mbctype.obj
 0001:0001a5a8       ?setSBUpLow@@YAXPEAU__crt_multibyte_data@@@Z 000000018001b5a8 f   libucrt:mbctype.obj
 0001:0001a78c       ?setmbcp_internal@@YAHH_N@Z 000000018001b78c f   libucrt:mbctype.obj
 0001:0001acd4       ?x_ismbbtype_l@@YAHPEAU__crt_locale_pointers@@IHH@Z 000000018001bcd4 f   libucrt:ismbbyte.obj
 0001:0001af54       ?initialize_inherited_file_handles_nolock@@YAXXZ 000000018001bf54 f   libucrt:ioinit.obj
 0001:0001b040       ?initialize_stdio_handles_nolock@@YAXXZ 000000018001c040 f   libucrt:ioinit.obj
 0001:0001c148       ?free_crt_array_internal@@YAXQEAPEBX_K@Z 000000018001d148 f   libucrt:inittime.obj
 0001:0001c2a8       ?GetTableIndexFromLocaleName@@YAHPEB_W@Z 000000018001d2a8 f   libucrt:lcidtoname_downlevel.obj
 0001:0001c3b0       ?shortsort@@YAXPEAD0_KP6AHPEBX2@Z@Z 000000018001d3b0 f   libucrt:qsort.obj
 0001:0001c9c8       ?initialize_multibyte@@YAHXZ 000000018001d9c8 f   libucrt:multibyte_initializer.obj
 0001:0001c9e0       ?__acrt_LCMapStringA_stat@@YAHPEAU__crt_locale_pointers@@PEB_WKPEBDHPEADHHH@Z 000000018001d9e0 f   libucrt:lcmapstringa.obj
 0001:0001d2e0       common_flush_all           000000018001e2e0 f   libucrt:fflush.obj
 0001:0001d5f8       ?write_double_translated_ansi_nolock@@YA?AUwrite_result@?A0x9c548279@@HQEBDI@Z 000000018001e5f8 f   libucrt:write.obj
 0001:0001d800       ?write_text_ansi_nolock@@YA?AUwrite_result@?A0x9c548279@@HQEBDI@Z 000000018001e800 f   libucrt:write.obj
 0001:0001d908       ?write_text_utf16le_nolock@@YA?AUwrite_result@?A0x9c548279@@HQEBDI@Z 000000018001e908 f   libucrt:write.obj
 0001:0001da24       ?write_text_utf8_nolock@@YA?AUwrite_result@?A0x9c548279@@HQEBDI@Z 000000018001ea24 f   libucrt:write.obj
 0001:0001df70       $$000000                   000000018001ef70     libucrt:log10.obj
 0001:0001e51c       ??$common_lseek_nolock@_J@@YA_JH_JH@Z 000000018001f51c f   libucrt:lseek.obj
 0001:0001e70c       _call_matherr              000000018001f70c f   libucrt:libm_error.obj
 0001:0001e774       _exception_enabled         000000018001f774 f   libucrt:libm_error.obj
 0001:0001e9f0       _log_special_common        000000018001f9f0 f   libucrt:log_special.obj
 0001:0001ed00       $$000000                   000000018001fd00     libucrt:fpsr.obj
 0001:0001f280       $$000000                   0000000180020280     LIBCMT:_chkstk_.obj
 0001:0001f2f0       $$000000                   00000001800202f0     LIBCMT:_guard_dispatch_.obj
 0001:0001f310       $$000000                   0000000180020310     LIBCMT:_rfgfailure_.obj
 0001:0001f3d0       ?dtor$0@?0??CheckVarsInitialized@@YAXXZ@4HA 00000001800203d0 f   ConEmuTh.obj
 0001:0001f3ed       ?dtor$1@?0??CheckVarsInitialized@@YAXXZ@4HA 00000001800203ed f   ConEmuTh.obj
 0001:0001f40a       ?dtor$2@?0??CheckVarsInitialized@@YAXXZ@4HA 000000018002040a f   ConEmuTh.obj
 0001:0001f427       ?dtor$0@?0??LoadThSet@@YAHK@Z@4HA 0000000180020427 f   ConEmuTh.obj
 0001:0001f433       ?dtor$0@?0??StartPlugin@@YAXH@Z@4HA 0000000180020433 f   ConEmuTh.obj
 0001:0001f450       ?dtor$0@?0??Paint@CeFullPanelInfo@@QEAAXPEAUHWND__@@AEAUtagPAINTSTRUCT@@AEAUtagRECT@@@Z@4HA 0000000180020450 f   Display.obj
 0001:0001f45c       ?dtor$0@?0??ReallocItems@CeFullPanelInfo@@QEAAH_J@Z@4HA 000000018002045c f   Display.obj
 0001:0001f468       ?dtor$0@?0???0?$CQueueProcessor@PEAUIMAGE_CACHE_INFO@@@@QEAA@XZ@4HA 0000000180020468 f   ImgCache.obj
 0001:0001f485       ?dtor$0@?0??FindOrCreate@?$CQueueProcessor@PEAUIMAGE_CACHE_INFO@@@@AEAAPEAUProcessingItem@1@AEBQEAUIMAGE_CACHE_INFO@@_J_NW4ProcessingPriority@@@Z@4HA 0000000180020485 f   ImgCache.obj
 0001:0001f491       ?dtor$0@?0??ProcessingStep@?$CQueueProcessor@PEAUIMAGE_CACHE_INFO@@@@IEAA_NXZ@4HA 0000000180020491 f   ImgCache.obj
 0001:0001f49d       ?dtor$0@?0??RequestItem@CImgCache@@QEAAHPEAUCePluginPanelItem@@I@Z@4HA 000000018002049d f   ImgCache.obj
 0001:0001f4ba       ?dtor$0@?0??SearchAppPaths@@YA_NPEB_WAEAUCEStr@@_NPEAU1@@Z@4HA 00000001800204ba f   common-user64:WFiles.obj
 0001:0001f4c6       ?fin$0@?0??dllmain_crt_process_attach@@YAHQEAUHINSTANCE__@@QEAX@Z@4HA 00000001800204c6 f   LIBCMT:dll_dllmain.obj
 0001:0001f4dd       ?fin$0@?0??dllmain_crt_process_detach@@YAH_N@Z@4HA 00000001800204dd f   LIBCMT:dll_dllmain.obj
 0001:0001f4f9       ?filt$0@?0??dllmain_dispatch@@YAHQEAUHINSTANCE__@@KQEAX@Z@4HA 00000001800204f9 f   LIBCMT:dll_dllmain.obj
 0001:0001f52f       __scrt_is_nonwritable_in_current_image$filt$0 000000018002052f f   LIBCMT:utility.obj
 0001:0001f547       _CallSETranslator$filt$0   0000000180020547 f   libvcruntime:risctrnsctrl.obj
 0001:0001f5d8       __CxxCallCatchBlock$filt$0 00000001800205d8 f   libvcruntime:frame.obj
 0001:0001f5fd       __CxxCallCatchBlock$fin$1  00000001800205fd f   libvcruntime:frame.obj
 0001:0001f675       __FrameUnwindToState$filt$0 0000000180020675 f   libvcruntime:frame.obj
 0001:0001f68b       __FrameUnwindToState$fin$1 000000018002068b f   libvcruntime:frame.obj
 0001:0001f6ae       __DestructExceptionObject$filt$0 00000001800206ae f   libvcruntime:ehhelpers.obj
 0001:0001f6c6       ?filt$0@?0??common_exit@@YAXHW4_crt_exit_cleanup_mode@@W4_crt_exit_return_mode@@@Z@4HA 00000001800206c6 f   libucrt:exit.obj
 0001:0001f6e1       ?fin$1@?0??common_exit@@YAXHW4_crt_exit_cleanup_mode@@W4_crt_exit_return_mode@@@Z@4HA 00000001800206e1 f   libucrt:exit.obj
 0001:0001f6fa       ?fin$0@?0???$?RV<lambda_e24bbb7b643b32fcea6fa61b31d4c984>@@AEAV<lambda_275893d493268fdec8709772e3fcec0e>@@V<lambda_9d71df4d7cf3f480f8d633942495c3b0>@@@?$__crt_seh_guarded_call@H@@QEAAH$$QEAV<lambda_e24bbb7b643b32fcea6fa61b31d4c984>@@AEAV<lambda_275893d493268fdec8709772e3fcec0e>@@$$QEAV<lambda_9d71df4d7cf3f480f8d633942495c3b0>@@@Z@4HA 00000001800206fa f   libucrt:onexit.obj
 0001:0001f717       ?fin$0@?0???$?RV<lambda_46352004c1216016012b18bd6f87e700>@@AEAV<lambda_3bd07e1a1191394380780325891bf33f>@@V<lambda_334532d3f185bcaa59b5be82d7d22bff>@@@?$__crt_seh_guarded_call@X@@QEAAX$$QEAV<lambda_46352004c1216016012b18bd6f87e700>@@AEAV<lambda_3bd07e1a1191394380780325891bf33f>@@$$QEAV<lambda_334532d3f185bcaa59b5be82d7d22bff>@@@Z@4HA 0000000180020717 f   libucrt:per_thread_data.obj
 0001:0001f717       ?fin$0@?0???$?RV<lambda_99476a1ad63dd22509b5d3e65b0ffc95>@@AEAV<lambda_ad1ced32f4ac17aa236e5ef05d6b3b7c>@@V<lambda_f7424dd8d45958661754dc4f2697e9c3>@@@?$__crt_seh_guarded_call@X@@QEAAX$$QEAV<lambda_99476a1ad63dd22509b5d3e65b0ffc95>@@AEAV<lambda_ad1ced32f4ac17aa236e5ef05d6b3b7c>@@$$QEAV<lambda_f7424dd8d45958661754dc4f2697e9c3>@@@Z@4HA 0000000180020717 f   libucrt:mbctype.obj
 0001:0001f717       ?fin$0@?0???$?RV<lambda_c36588078e9f5dfd39652860aa6b3aaf>@@AEAV<lambda_ec61778202f4f5fc7e7711acc23c3bca>@@V<lambda_dc9d2797ccde5d239b4a0efae8ebd7db>@@@?$__crt_seh_guarded_call@P6AXH@Z@@QEAAP6AXH@Z$$QEAV<lambda_c36588078e9f5dfd39652860aa6b3aaf>@@AEAV<lambda_ec61778202f4f5fc7e7711acc23c3bca>@@$$QEAV<lambda_dc9d2797ccde5d239b4a0efae8ebd7db>@@@Z@4HA 0000000180020717 f   libucrt:signal.obj
 0001:0001f717       ?fin$0@?0???$?RV<lambda_72d1df2b273a38828b1ce30cbf4cdab5>@@AEAV<lambda_876a65b173b8412d3a47c70a915b0cf4>@@V<lambda_41932305e351933ebe8f8be3ed8bb5dc>@@@?$__crt_seh_guarded_call@X@@QEAAX$$QEAV<lambda_72d1df2b273a38828b1ce30cbf4cdab5>@@AEAV<lambda_876a65b173b8412d3a47c70a915b0cf4>@@$$QEAV<lambda_41932305e351933ebe8f8be3ed8bb5dc>@@@Z@4HA 0000000180020717 f   libucrt:per_thread_data.obj
 0001:0001f717       ?fin$0@?0???$?RV<lambda_fb3a7dec4e47f37f22dae91bb15c9095>@@AEAV<lambda_698284760c8add0bfb0756c19673e34b>@@V<lambda_dfb8eca1e75fef3034a8fb18dd509707>@@@?$__crt_seh_guarded_call@X@@QEAAX$$QEAV<lambda_fb3a7dec4e47f37f22dae91bb15c9095>@@AEAV<lambda_698284760c8add0bfb0756c19673e34b>@@$$QEAV<lambda_dfb8eca1e75fef3034a8fb18dd509707>@@@Z@4HA 0000000180020717 f   libucrt:per_thread_data.obj
 0001:0001f717       ?fin$0@?0???$?RV<lambda_5e887d1dcbef67a5eb4283622ba103bf>@@AEAV<lambda_4466841279450cc726390878d4a41900>@@V<lambda_341c25c0346d94847f1f3c463c57e077>@@@?$__crt_seh_guarded_call@X@@QEAAX$$QEAV<lambda_5e887d1dcbef67a5eb4283622ba103bf>@@AEAV<lambda_4466841279450cc726390878d4a41900>@@$$QEAV<lambda_341c25c0346d94847f1f3c463c57e077>@@@Z@4HA 0000000180020717 f   libucrt:per_thread_data.obj
 0001:0001f731       __acrt_update_thread_multibyte_data$fin$0 0000000180020731 f   libucrt:mbctype.obj
 0001:0001f74a       __acrt_lowio_ensure_fh_exists$fin$0 000000018002074a f   libucrt:osfinfo.obj
 0001:0001f74a       __acrt_initialize_lowio$fin$0 000000018002074a f   libucrt:ioinit.obj
 0001:0001f763       _query_new_handler$fin$0   0000000180020763 f   libucrt:new_handler.obj
 0001:0001f779       raise$fin$0                0000000180020779 f   libucrt:signal.obj
 0001:0001f79d       __acrt_uninitialize_locale$fin$0 000000018002079d f   libucrt:wsetlocale.obj
 0001:0001f79d       __acrt_update_thread_locale_data$fin$0 000000018002079d f   libucrt:locale_refcounting.obj
 0001:0001f7b6       common_flush_all$fin$0     00000001800207b6 f   libucrt:fflush.obj
 0001:0001f7d0       common_flush_all$fin$1     00000001800207d0 f   libucrt:fflush.obj
 0001:0001f7e9       _fcloseall$fin$0           00000001800207e9 f   libucrt:closeall.obj
 0001:0001f802       ?fin$0@?0???$?RV<lambda_bfedae4ebbf01fab1bb6dcc6a9e276e0>@@AEAV<lambda_2fe9b910cf3cbf4a0ab98a02ba45b3ec>@@V<lambda_237c231691f317818eb88cc1d5d642d6>@@@?$__crt_seh_guarded_call@H@@QEAAH$$QEAV<lambda_bfedae4ebbf01fab1bb6dcc6a9e276e0>@@AEAV<lambda_2fe9b910cf3cbf4a0ab98a02ba45b3ec>@@$$QEAV<lambda_237c231691f317818eb88cc1d5d642d6>@@@Z@4HA 0000000180020802 f   libucrt:close.obj
 0001:0001f802       ?fin$0@?0???$?RV<lambda_b521505b218e5242e90febf6bfebc422>@@AEAV<lambda_6978c1fb23f02e42e1d9e99668cc68aa>@@V<lambda_314360699dd331753a4119843814e9a7>@@@?$__crt_seh_guarded_call@H@@QEAAH$$QEAV<lambda_b521505b218e5242e90febf6bfebc422>@@AEAV<lambda_6978c1fb23f02e42e1d9e99668cc68aa>@@$$QEAV<lambda_314360699dd331753a4119843814e9a7>@@@Z@4HA 0000000180020802 f   libucrt:commit.obj
 0001:0001f81c       _write$fin$0               000000018002081c f   libucrt:write.obj
 0001:0001f833       fclose$fin$0               0000000180020833 f   libucrt:fclose.obj
 0001:0001f84b       _ctrlfp$filt$0             000000018002084b f   libucrt:fpctrl.obj
 0001:0001f880       _IsNonwritableInCurrentImage$filt$0 0000000180020880 f   LIBCMT:pesect.obj
 0002:00000718       $cppxdata$?LoadThSet@@YAHK@Z 0000000180021718     ConEmuTh.obj
 0002:00000740       $cppxdata$?StartPlugin@@YAXH@Z 0000000180021740     ConEmuTh.obj
 0002:00000768       $cppxdata$?CheckVarsInitialized@@YAXXZ 0000000180021768     ConEmuTh.obj
 0002:00001188       ?gsDisplayClassName@@3QB_WB 0000000180022188     Display.obj
 0002:000011a8       $cppxdata$?ReallocItems@CeFullPanelInfo@@QEAAH_J@Z 00000001800221a8     Display.obj
 0002:000011d0       $cppxdata$?Paint@CeFullPanelInfo@@QEAAXPEAUHWND__@@AEAUtagPAINTSTRUCT@@AEAUtagRECT@@@Z 00000001800221d0     Display.obj
 0002:000013d8       $cppxdata$??1CImgCache@@QEAA@XZ 00000001800223d8     ImgCache.obj
 0002:00001400       $cppxdata$?RequestItem@CImgCache@@QEAAHPEAUCePluginPanelItem@@I@Z 0000000180022400     ImgCache.obj
 0002:00001428       $cppxdata$?FindOrCreate@?$CQueueProcessor@PEAUIMAGE_CACHE_INFO@@@@AEAAPEAUProcessingItem@1@AEBQEAUIMAGE_CACHE_INFO@@_J_NW4ProcessingPriority@@@Z 0000000180022428     ImgCache.obj
 0002:00001450       $cppxdata$??0?$CQueueProcessor@PEAUIMAGE_CACHE_INFO@@@@QEAA@XZ 0000000180022450     ImgCache.obj
 0002:00001478       $cppxdata$??1?$CQueueProcessor@PEAUIMAGE_CACHE_INFO@@@@UEAA@XZ 0000000180022478     ImgCache.obj
 0002:000014a0       $cppxdata$?ProcessingStep@?$CQueueProcessor@PEAUIMAGE_CACHE_INFO@@@@IEAA_NXZ 00000001800224a0     ImgCache.obj
 0002:00001f20       $cppxdata$??1CRgnDetect@@QEAA@XZ 0000000180022f20     common-user64:RgnDetect.obj
 0002:00001f80       $cppxdata$?SearchAppPaths@@YA_NPEB_WAEAUCEStr@@_NPEAU1@@Z 0000000180022f80     common-user64:WFiles.obj
 0002:00002050       GS_ExceptionPointers       0000000180023050     LIBCMT:gs_report.obj
 0002:00002060       ?ExceptionTemplate@?1??_UnwindNestedFrames@@9@4U_EXCEPTION_RECORD@@B 0000000180023060     libvcruntime:risctrnsctrl.obj
 0002:00002150       ?tokenTable@@3QBQEBDB      0000000180023150     libvcruntime:undname.obj
 0002:000021c0       ?nameTable@@3QBQEBDB       00000001800231c0     libvcruntime:undname.obj
 0002:00002450       ?rttiTable@@3QBQEBDB       0000000180023450     libvcruntime:undname.obj
 0002:00002ae8       ?module_names@?A0x2db55455@@3QBQEB_WB 0000000180023ae8     libvcruntime:winapi_downlevel.obj
 0002:00002bb8       ?candidate_modules@?1??try_get_FlsAlloc@@YAP6AKP6AXPEAX@Z@ZXZ@4QBW4module_id@?A0x2db55455@@B 0000000180023bb8     libvcruntime:winapi_downlevel.obj
 0002:00002bd0       ?candidate_modules@?1??try_get_FlsFree@@YAP6AHK@ZXZ@4QBW4module_id@?A0x2db55455@@B 0000000180023bd0     libvcruntime:winapi_downlevel.obj
 0002:00002be0       ?candidate_modules@?1??try_get_FlsGetValue@@YAP6APEAXK@ZXZ@4QBW4module_id@?A0x2db55455@@B 0000000180023be0     libvcruntime:winapi_downlevel.obj
 0002:00002bf8       ?candidate_modules@?1??try_get_FlsSetValue@@YAP6AHKPEAX@ZXZ@4QBW4module_id@?A0x2db55455@@B 0000000180023bf8     libvcruntime:winapi_downlevel.obj
 0002:00002c10       ?candidate_modules@?1??try_get_InitializeCriticalSectionEx@@YAP6AHPEAU_RTL_CRITICAL_SECTION@@KK@ZXZ@4QBW4module_id@?A0x2db55455@@B 0000000180023c10     libvcruntime:winapi_downlevel.obj
 0002:00002c40       ?ExceptionTemplate@?1??_CxxThrowException@@9@4UEHExceptionRecord@@B 0000000180023c40     libvcruntime:throw.obj
 0002:00002d80       __acrt_initializers        0000000180023d80     libucrt:initialization.obj
 0002:00002e70       errtable                   0000000180023e70     libucrt:errno.obj
 0002:00003c60       module_names               0000000180024c60     libucrt:winapi_thunks.obj
 0002:000041a8       ?candidate_modules@?1??try_get_FlsAlloc@@YAP6AKP6AXPEAX@Z@ZXZ@4QBW4module_id@?A0x63058377@@B 00000001800251a8     libucrt:winapi_thunks.obj
 0002:000041b0       ?candidate_modules@?1??try_get_FlsFree@@YAP6AHK@ZXZ@4QBW4module_id@?A0x63058377@@B 00000001800251b0     libucrt:winapi_thunks.obj
 0002:000041b8       ?candidate_modules@?1??try_get_FlsGetValue@@YAP6APEAXK@ZXZ@4QBW4module_id@?A0x63058377@@B 00000001800251b8     libucrt:winapi_thunks.obj
 0002:000041c0       ?candidate_modules@?1??try_get_FlsSetValue@@YAP6AHKPEAX@ZXZ@4QBW4module_id@?A0x63058377@@B 00000001800251c0     libucrt:winapi_thunks.obj
 0002:000041c8       ?candidate_modules@?1??try_get_GetCurrentPackageId@@YAP6AJPEAIPEAE@ZXZ@4QBW4module_id@?A0x63058377@@B 00000001800251c8     libucrt:winapi_thunks.obj
 0002:000041e8       ?candidate_modules@?1??try_get_InitializeCriticalSectionEx@@YAP6AHPEAU_RTL_CRITICAL_SECTION@@KK@ZXZ@4QBW4module_id@?A0x63058377@@B 00000001800251e8     libucrt:winapi_thunks.obj
 0002:000041f0       ?candidate_modules@?1??try_get_LCMapStringEx@@YAP6AHPEB_WK0HPEA_WHPEAU_nlsversioninfo@@PEAX_J@ZXZ@4QBW4module_id@?A0x63058377@@B 00000001800251f0     libucrt:winapi_thunks.obj
 0002:00004208       ?candidate_modules@?1??try_get_LocaleNameToLCID@@YAP6AKPEB_WK@ZXZ@4QBW4module_id@?A0x63058377@@B 0000000180025208     libucrt:winapi_thunks.obj
 0002:00004228       _mb_locale_names           0000000180025228     libucrt:mbctype.obj
 0002:00004290       LcidToLocaleNameTable      0000000180025290     libucrt:lcidtoname_downlevel.obj
 0002:00005ce0       LocaleNameToIndexTable     0000000180026ce0     libucrt:lcidtoname_downlevel.obj
 0002:00007580       __real_ninf                0000000180028580     libucrt:log10.obj
 0002:00007590       __real_inf                 0000000180028590     libucrt:log10.obj
 0002:000075a0       __real_neg_qnan            00000001800285a0     libucrt:log10.obj
 0002:000075b0       __real_qnanbit             00000001800285b0     libucrt:log10.obj
 0002:000075c0       __int_1023                 00000001800285c0     libucrt:log10.obj
 0002:000075d0       __mask_001                 00000001800285d0     libucrt:log10.obj
 0002:000075e0       __mask_mant                00000001800285e0     libucrt:log10.obj
 0002:000075f0       __mask_mant_top8           00000001800285f0     libucrt:log10.obj
 0002:00007600       __mask_mant9               0000000180028600     libucrt:log10.obj
 0002:00007610       __real_log10_e             0000000180028610     libucrt:log10.obj
 0002:00007620       __real_log10_e_lead        0000000180028620     libucrt:log10.obj
 0002:00007630       __real_log10_e_tail        0000000180028630     libucrt:log10.obj
 0002:00007640       __real_log10_2_lead        0000000180028640     libucrt:log10.obj
 0002:00007650       __real_log10_2_tail        0000000180028650     libucrt:log10.obj
 0002:00007660       __real_two                 0000000180028660     libucrt:log10.obj
 0002:00007670       __real_one                 0000000180028670     libucrt:log10.obj
 0002:00007680       __real_half                0000000180028680     libucrt:log10.obj
 0002:00007690       __mask_100                 0000000180028690     libucrt:log10.obj
 0002:000076a0       __real_1_over_512          00000001800286a0     libucrt:log10.obj
 0002:000076b0       __real_1_over_2            00000001800286b0     libucrt:log10.obj
 0002:000076c0       __real_1_over_3            00000001800286c0     libucrt:log10.obj
 0002:000076d0       __real_1_over_4            00000001800286d0     libucrt:log10.obj
 0002:000076e0       __real_1_over_5            00000001800286e0     libucrt:log10.obj
 0002:000076f0       __real_1_over_6            00000001800286f0     libucrt:log10.obj
 0002:00007700       __real_neg_1023            0000000180028700     libucrt:log10.obj
 0002:00007710       __mask_2045                0000000180028710     libucrt:log10.obj
 0002:00007720       __real_threshold           0000000180028720     libucrt:log10.obj
 0002:00007730       __real_near_one_lt         0000000180028730     libucrt:log10.obj
 0002:00007740       __real_near_one_gt         0000000180028740     libucrt:log10.obj
 0002:00007750       __real_min_norm            0000000180028750     libucrt:log10.obj
 0002:00007760       __real_notsign             0000000180028760     libucrt:log10.obj
 0002:00007770       __real_ca1                 0000000180028770     libucrt:log10.obj
 0002:00007780       __real_ca2                 0000000180028780     libucrt:log10.obj
 0002:00007790       __real_ca3                 0000000180028790     libucrt:log10.obj
 0002:000077a0       __real_ca4                 00000001800287a0     libucrt:log10.obj
 0002:000077b0       __mask_lower               00000001800287b0     libucrt:log10.obj
 0002:000077c0       __flag_x_zero              00000001800287c0     libucrt:log10.obj
 0002:000077c4       __flag_x_neg               00000001800287c4     libucrt:log10.obj
 0002:000077c8       __flag_x_nan               00000001800287c8     libucrt:log10.obj
 0002:00009020       __real@433fffffffffffff    000000018002a020     libucrt:fpsr.obj
 0002:00009028       __real@c33fffffffffffff    000000018002a028     libucrt:fpsr.obj
 0002:00009830       $unwind$?LoadModuleVersion@@YA_NPEB_WAEAUtagVS_FIXEDFILEINFO@@PEA_W_K@Z 000000018002a830     ConEmuTh.obj
 0002:00009850       $unwind$?LoadFarVersion@@YA_NAEAUFarVersion@@AEAY0CAA@_W@Z 000000018002a850     ConEmuTh.obj
 0002:0000986c       $unwind$?Invalidate@CeFullPanelInfo@@QEAAXXZ 000000018002a86c     Display.obj
 0002:0000986c       $unwind$?FreeUserData@CePluginPanelItem@@QEAAXXZ 000000018002a86c     ConEmuTh.obj
 0002:0000986c       $unwind$__acrt_locale_free_numeric 000000018002a86c     libucrt:initnum.obj
 0002:0000986c       $unwind$?xf_free@@YAXPEAXPEBDH@Z 000000018002a86c     common-kernel64:Memory.obj
 0002:0000986c       $unwind$?FreeItem@CePluginPanelItem@@QEAAXXZ 000000018002a86c     ConEmuTh.obj
 0002:0000986c       $unwind$?destroy_fls@@YAXPEAX@Z 000000018002a86c     libucrt:per_thread_data.obj
 0002:0000986c       $unwind$_free_base         000000018002a86c     libucrt:free_base.obj
 0002:0000986c       $unwind$?ExecuteInMainThread@@YAXPEAUConEmuThSynchroArg@@@Z 000000018002a86c     ConEmuTh.obj
 0002:0000986c       $unwind$__acrt_locale_free_lc_time_if_unreferenced 000000018002a86c     libucrt:locale_refcounting.obj
 0002:00009874       $unwind$?LoadThSet@@YAHK@Z 000000018002a874     ConEmuTh.obj
 0002:00009898       $stateUnwindMap$?LoadThSet@@YAHK@Z 000000018002a898     ConEmuTh.obj
 0002:000098a0       $ip2state$?LoadThSet@@YAHK@Z 000000018002a8a0     ConEmuTh.obj
 0002:000098b8       $unwind$?SettingsLoadReg@@YAHPEB_W0PEAK@Z 000000018002a8b8     ConEmuTh.obj
 0002:000098c8       $unwind$?SettingsLoadOther@@YAXPEB_W@Z 000000018002a8c8     ConEmuTh.obj
 0002:000098dc       $unwind$?SettingsSaveReg@@YAXPEB_W0PEAK@Z 000000018002a8dc     ConEmuTh.obj
 0002:000098e8       $unwind$?SavePanelViewState@@YAXHK@Z 000000018002a8e8     ConEmuTh.obj
 0002:000098e8       $unwind$__report_securityfailure 000000018002a8e8     LIBCMT:gs_report.obj
 0002:000098f0       $unwind$?StartPlugin@@YAXH@Z 000000018002a8f0     ConEmuTh.obj
 0002:0000990c       $stateUnwindMap$?StartPlugin@@YAXH@Z 000000018002a90c     ConEmuTh.obj
 0002:00009918       $ip2state$?StartPlugin@@YAXH@Z 000000018002a918     ConEmuTh.obj
 0002:00009930       $unwind$?PostMacro@@YAXPEA_W@Z 000000018002a930     ConEmuTh.obj
 0002:00009950       $unwind$?ReloadPanelsInfo@@YAXXZ 000000018002a950     ConEmuTh.obj
 0002:0000996c       $unwind$?IsThumbnailsActive@@YAPEAUCeFullPanelInfo@@H@Z 000000018002a96c     ConEmuTh.obj
 0002:0000998c       $unwind$?OnPreWriteConsoleOutput@@YAHPEAXPEBU_CHAR_INFO@@U_COORD@@2PEAU_SMALL_RECT@@@Z 000000018002a98c     ConEmuTh.obj
 0002:000099a8       $unwind$?ShowLastError@@YAHXZ 000000018002a9a8     ConEmuTh.obj
 0002:000099a8       $unwind$?LoadFarVersion@@YAHXZ 000000018002a9a8     ConEmuTh.obj
 0002:000099bc       $unwind$?CheckVarsInitialized@@YAXXZ 000000018002a9bc     ConEmuTh.obj
 0002:000099cc       $stateUnwindMap$?CheckVarsInitialized@@YAXXZ 000000018002a9cc     ConEmuTh.obj
 0002:000099e8       $ip2state$?CheckVarsInitialized@@YAXXZ 000000018002a9e8     ConEmuTh.obj
 0002:00009a20       $unwind$raise$fin$0        000000018002aa20     libucrt:signal.obj
 0002:00009a20       $unwind$?fin$0@?0???$?RV<lambda_5e887d1dcbef67a5eb4283622ba103bf>@@AEAV<lambda_4466841279450cc726390878d4a41900>@@V<lambda_341c25c0346d94847f1f3c463c57e077>@@@?$__crt_seh_guarded_call@X@@QEAAX$$QEAV<lambda_5e887d1dcbef67a5eb4283622ba103bf>@@AEAV<lambda_4466841279450cc726390878d4a41900>@@$$QEAV<lambda_341c25c0346d94847f1f3c463c57e077>@@@Z@4HA 000000018002aa20     libucrt:per_thread_data.obj
 0002:00009a20       $unwind$?fin$0@?0???$?RV<lambda_c36588078e9f5dfd39652860aa6b3aaf>@@AEAV<lambda_ec61778202f4f5fc7e7711acc23c3bca>@@V<lambda_dc9d2797ccde5d239b4a0efae8ebd7db>@@@?$__crt_seh_guarded_call@P6AXH@Z@@QEAAP6AXH@Z$$QEAV<lambda_c36588078e9f5dfd39652860aa6b3aaf>@@AEAV<lambda_ec61778202f4f5fc7e7711acc23c3bca>@@$$QEAV<lambda_dc9d2797ccde5d239b4a0efae8ebd7db>@@@Z@4HA 000000018002aa20     libucrt:signal.obj
 0002:00009a20       $unwind$?fin$0@?0???$?RV<lambda_b521505b218e5242e90febf6bfebc422>@@AEAV<lambda_6978c1fb23f02e42e1d9e99668cc68aa>@@V<lambda_314360699dd331753a4119843814e9a7>@@@?$__crt_seh_guarded_call@H@@QEAAH$$QEAV<lambda_b521505b218e5242e90febf6bfebc422>@@AEAV<lambda_6978c1fb23f02e42e1d9e99668cc68aa>@@$$QEAV<lambda_314360699dd331753a4119843814e9a7>@@@Z@4HA 000000018002aa20     libucrt:commit.obj
 0002:00009a20       $unwind$_ctrlfp$filt$0     000000018002aa20     libucrt:fpctrl.obj
 0002:00009a20       $unwind$__acrt_update_thread_multibyte_data$fin$0 000000018002aa20     libucrt:mbctype.obj
 0002:00009a20       $unwind$?fin$0@?0???$?RV<lambda_99476a1ad63dd22509b5d3e65b0ffc95>@@AEAV<lambda_ad1ced32f4ac17aa236e5ef05d6b3b7c>@@V<lambda_f7424dd8d45958661754dc4f2697e9c3>@@@?$__crt_seh_guarded_call@X@@QEAAX$$QEAV<lambda_99476a1ad63dd22509b5d3e65b0ffc95>@@AEAV<lambda_ad1ced32f4ac17aa236e5ef05d6b3b7c>@@$$QEAV<lambda_f7424dd8d45958661754dc4f2697e9c3>@@@Z@4HA 000000018002aa20     libucrt:mbctype.obj
 0002:00009a20       $unwind$?dtor$0@?0???0?$CQueueProcessor@PEAUIMAGE_CACHE_INFO@@@@QEAA@XZ@4HA 000000018002aa20     ImgCache.obj
 0002:00009a20       $unwind$?dtor$0@?0??CheckVarsInitialized@@YAXXZ@4HA 000000018002aa20     ConEmuTh.obj
 0002:00009a20       $unwind$?dtor$0@?0??StartPlugin@@YAXH@Z@4HA 000000018002aa20     ConEmuTh.obj
 0002:00009a20       $unwind$?fin$0@?0???$?RV<lambda_72d1df2b273a38828b1ce30cbf4cdab5>@@AEAV<lambda_876a65b173b8412d3a47c70a915b0cf4>@@V<lambda_41932305e351933ebe8f8be3ed8bb5dc>@@@?$__crt_seh_guarded_call@X@@QEAAX$$QEAV<lambda_72d1df2b273a38828b1ce30cbf4cdab5>@@AEAV<lambda_876a65b173b8412d3a47c70a915b0cf4>@@$$QEAV<lambda_41932305e351933ebe8f8be3ed8bb5dc>@@@Z@4HA 000000018002aa20     libucrt:per_thread_data.obj
 0002:00009a20       $unwind$?filt$0@?0??common_exit@@YAXHW4_crt_exit_cleanup_mode@@W4_crt_exit_return_mode@@@Z@4HA 000000018002aa20     libucrt:exit.obj
 0002:00009a20       $unwind$__FrameUnwindToState$fin$1 000000018002aa20     libvcruntime:frame.obj
 0002:00009a20       $unwind$__FrameUnwindToState$filt$0 000000018002aa20     libvcruntime:frame.obj
 0002:00009a20       $unwind$__acrt_update_thread_locale_data$fin$0 000000018002aa20     libucrt:locale_refcounting.obj
 0002:00009a20       $unwind$__CxxCallCatchBlock$filt$0 000000018002aa20     libvcruntime:frame.obj
 0002:00009a20       $unwind$?fin$0@?0???$?RV<lambda_46352004c1216016012b18bd6f87e700>@@AEAV<lambda_3bd07e1a1191394380780325891bf33f>@@V<lambda_334532d3f185bcaa59b5be82d7d22bff>@@@?$__crt_seh_guarded_call@X@@QEAAX$$QEAV<lambda_46352004c1216016012b18bd6f87e700>@@AEAV<lambda_3bd07e1a1191394380780325891bf33f>@@$$QEAV<lambda_334532d3f185bcaa59b5be82d7d22bff>@@@Z@4HA 000000018002aa20     libucrt:per_thread_data.obj
 0002:00009a20       $unwind$?fin$0@?0??dllmain_crt_process_attach@@YAHQEAUHINSTANCE__@@QEAX@Z@4HA 000000018002aa20     LIBCMT:dll_dllmain.obj
 0002:00009a20       $unwind$?fin$0@?0???$?RV<lambda_e24bbb7b643b32fcea6fa61b31d4c984>@@AEAV<lambda_275893d493268fdec8709772e3fcec0e>@@V<lambda_9d71df4d7cf3f480f8d633942495c3b0>@@@?$__crt_seh_guarded_call@H@@QEAAH$$QEAV<lambda_e24bbb7b643b32fcea6fa61b31d4c984>@@AEAV<lambda_275893d493268fdec8709772e3fcec0e>@@$$QEAV<lambda_9d71df4d7cf3f480f8d633942495c3b0>@@@Z@4HA 000000018002aa20     libucrt:onexit.obj
 0002:00009a20       $unwind$__DestructExceptionObject$filt$0 000000018002aa20     libvcruntime:ehhelpers.obj
 0002:00009a20       $unwind$__acrt_uninitialize_locale$fin$0 000000018002aa20     libucrt:wsetlocale.obj
 0002:00009a20       $unwind$_write$fin$0       000000018002aa20     libucrt:write.obj
 0002:00009a20       $unwind$?fin$0@?0???$?RV<lambda_bfedae4ebbf01fab1bb6dcc6a9e276e0>@@AEAV<lambda_2fe9b910cf3cbf4a0ab98a02ba45b3ec>@@V<lambda_237c231691f317818eb88cc1d5d642d6>@@@?$__crt_seh_guarded_call@H@@QEAAH$$QEAV<lambda_bfedae4ebbf01fab1bb6dcc6a9e276e0>@@AEAV<lambda_2fe9b910cf3cbf4a0ab98a02ba45b3ec>@@$$QEAV<lambda_237c231691f317818eb88cc1d5d642d6>@@@Z@4HA 000000018002aa20     libucrt:close.obj
 0002:00009a20       $unwind$_fcloseall$fin$0   000000018002aa20     libucrt:closeall.obj
 0002:00009a20       $unwind$_IsNonwritableInCurrentImage$filt$0 000000018002aa20     LIBCMT:pesect.obj
 0002:00009a20       $unwind$common_flush_all$fin$0 000000018002aa20     libucrt:fflush.obj
 0002:00009a20       $unwind$common_flush_all$fin$1 000000018002aa20     libucrt:fflush.obj
 0002:00009a20       $unwind$_query_new_handler$fin$0 000000018002aa20     libucrt:new_handler.obj
 0002:00009a20       $unwind$?fin$0@?0???$?RV<lambda_fb3a7dec4e47f37f22dae91bb15c9095>@@AEAV<lambda_698284760c8add0bfb0756c19673e34b>@@V<lambda_dfb8eca1e75fef3034a8fb18dd509707>@@@?$__crt_seh_guarded_call@X@@QEAAX$$QEAV<lambda_fb3a7dec4e47f37f22dae91bb15c9095>@@AEAV<lambda_698284760c8add0bfb0756c19673e34b>@@$$QEAV<lambda_dfb8eca1e75fef3034a8fb18dd509707>@@@Z@4HA 000000018002aa20     libucrt:per_thread_data.obj
 0002:00009a20       $unwind$__acrt_lowio_ensure_fh_exists$fin$0 000000018002aa20     libucrt:osfinfo.obj
 0002:00009a20       $unwind$?dtor$0@?0??RequestItem@CImgCache@@QEAAHPEAUCePluginPanelItem@@I@Z@4HA 000000018002aa20     ImgCache.obj
 0002:00009a20       $unwind$?fin$0@?0??dllmain_crt_process_detach@@YAH_N@Z@4HA 000000018002aa20     LIBCMT:dll_dllmain.obj
 0002:00009a20       $unwind$fclose$fin$0       000000018002aa20     libucrt:fclose.obj
 0002:00009a20       $unwind$__acrt_initialize_lowio$fin$0 000000018002aa20     libucrt:ioinit.obj
 0002:00009a20       $unwind$?dtor$2@?0??CheckVarsInitialized@@YAXXZ@4HA 000000018002aa20     ConEmuTh.obj
 0002:00009a20       $unwind$?dtor$1@?0??CheckVarsInitialized@@YAXXZ@4HA 000000018002aa20     ConEmuTh.obj
 0002:00009a20       $unwind$?fin$1@?0??common_exit@@YAXHW4_crt_exit_cleanup_mode@@W4_crt_exit_return_mode@@@Z@4HA 000000018002aa20     libucrt:exit.obj
 0002:00009a28       $unwind$?ProcessConsoleInput@@YAHHPEAU_INPUT_RECORD@@KPEAK@Z 000000018002aa28     ConEmuTh.obj
 0002:00009a4c       $unwind$?GetMainThreadId@@YAKXZ 000000018002aa4c     ConEmuTh.obj
 0002:00009a64       $unwind$?ChangeExports@@YA_NPEBUExportFunc@@PEAUHINSTANCE__@@@Z 000000018002aa64     ConEmuTh.obj
 0002:00009a80       $unwind$?InitName@?$MFileMapping@UPanelViewSetMapping@@@@QEAAPEB_WPEB_WKK@Z 000000018002aa80     ConEmuTh.obj
 0002:00009a80       $unwind$?InitName@?$MFileMapping@Utag_DetectedDialog@@@@QEAAPEB_WPEB_WKK@Z 000000018002aa80     ConEmuTh.obj
 0002:00009a94       $unwind$??$copy_and_add_argument_to_buffer@D@@YAHQEBD0_KAEAV?$argument_list@D@?A0xca0879c4@@@Z 000000018002aa94     libucrt:argv_wildcards.obj
 0002:00009a94       $unwind$?InternalOpenCreate@?$MFileMapping@Utag_DetectedDialog@@@@IEAAPEAUtag_DetectedDialog@@HHH@Z 000000018002aa94     ConEmuTh.obj
 0002:00009a94       $unwind$?InternalOpenCreate@?$MFileMapping@UPanelViewSetMapping@@@@IEAAPEAUPanelViewSetMapping@@HHH@Z 000000018002aa94     ConEmuTh.obj
 0002:00009ab0       $unwind$?SettingsLoadW1900@@YAHPEB_WPEAK@Z 000000018002aab0     ConEmuTh1900.obj
 0002:00009ac8       $unwind$?SettingsSaveW1900@@YAXPEB_WPEAK@Z 000000018002aac8     ConEmuTh1900.obj
 0002:00009ae0       $unwind$?SetStartupInfoW1900@@YAXPEAX@Z 000000018002aae0     ConEmuTh1900.obj
 0002:00009ae0       $unwind$?SetStartupInfoW2800@@YAXPEAX@Z 000000018002aae0     ConEmuTh2800.obj
 0002:00009afc       $unwind$?ShowPluginMenuW1900@@YAHXZ 000000018002aafc     ConEmuTh1900.obj
 0002:00009b18       $unwind$?LoadPanelInfoW2800@@YAHH@Z 000000018002ab18     ConEmuTh2800.obj
 0002:00009b18       $unwind$?LoadPanelInfoW1900@@YAHH@Z 000000018002ab18     ConEmuTh1900.obj
 0002:00009b3c       $unwind$?LoadPanelItemInfoW1900@@YAXPEAUCeFullPanelInfo@@_J@Z 000000018002ab3c     ConEmuTh1900.obj
 0002:00009b58       $unwind$?CheckFarPanelsW2800@@YA_NXZ 000000018002ab58     ConEmuTh2800.obj
 0002:00009b58       $unwind$?CheckFarPanelsW1900@@YA_NXZ 000000018002ab58     ConEmuTh1900.obj
 0002:00009b68       $unwind$?CheckPanelSettingsW2800@@YAHH@Z 000000018002ab68     ConEmuTh2800.obj
 0002:00009b68       $unwind$?CheckPanelSettingsW1900@@YAHH@Z 000000018002ab68     ConEmuTh1900.obj
 0002:00009b7c       $unwind$?SetCurrentPanelItemW1900@@YAXH_J0@Z 000000018002ab7c     ConEmuTh1900.obj
 0002:00009b9c       $unwind$?FindFrameTop_ByRight@CRgnDetect@@IEAA_NPEA_WPEAUtag_CharAttr@@HHAEAH22@Z 000000018002ab9c     common-user64:RgnDetect.obj
 0002:00009b9c       $unwind$?StringCchCopyW@@YAJPEA_W_KPEB_W@Z 000000018002ab9c     ConEmuTh.obj
 0002:00009b9c       $unwind$?GetIndexFromWndCoord@CeFullPanelInfo@@QEAAHHHAEA_J@Z 000000018002ab9c     Display.obj
 0002:00009b9c       $unwind$?Color2BgIndex@Far3Color@@SAXKHAEAGPEBK@Z 000000018002ab9c     ConEmuTh1900.obj
 0002:00009b9c       $unwind$?FindFrameTop_ByLeft@CRgnDetect@@IEAA_NPEA_WPEAUtag_CharAttr@@HHAEAH22@Z 000000018002ab9c     common-user64:RgnDetect.obj
 0002:00009b9c       $unwind$?StringCchCopyNW@@YAJPEA_W_KPEB_W1@Z 000000018002ab9c     common-kernel64:WObjects.obj
 0002:00009b9c       $unwind$?StringCchCatW@@YAJPEA_W_KPEB_W@Z 000000018002ab9c     ConEmuTh.obj
 0002:00009ba4       $unwind$?FarColor_3_2@@YAEAEBUFarColor@@@Z 000000018002aba4     ConEmuTh1900.obj
 0002:00009bb4       $unwind$?LoadFarSettingsW1900@@YAXPEAUCEFarInterfaceSettings@@PEAUCEFarPanelSettings@@@Z 000000018002abb4     ConEmuTh1900.obj
 0002:00009bb4       $unwind$?LoadFarSettingsW2800@@YAXPEAUCEFarInterfaceSettings@@PEAUCEFarPanelSettings@@@Z 000000018002abb4     ConEmuTh2800.obj
 0002:00009bcc       $unwind$GetGlobalInfoW     000000018002abcc     ConEmuTh2800.obj
 0002:00009bd4       $unwind$?SettingsLoadW2800@@YAHPEB_WPEAK@Z 000000018002abd4     ConEmuTh2800.obj
 0002:00009bec       $unwind$?SettingsSaveW2800@@YAXPEB_WPEAK@Z 000000018002abec     ConEmuTh2800.obj
 0002:00009c04       $unwind$?ShowMessageW1900@@YAHPEB_WH@Z 000000018002ac04     ConEmuTh1900.obj
 0002:00009c04       $unwind$?ShowMessageW2800@@YAHPEB_WH@Z 000000018002ac04     ConEmuTh2800.obj
 0002:00009c14       $unwind$?PostMacroW1900@@YAXPEA_W@Z 000000018002ac14     ConEmuTh1900.obj
 0002:00009c14       $unwind$?PostMacroW2800@@YAXPEA_W@Z 000000018002ac14     ConEmuTh2800.obj
 0002:00009c28       $unwind$?ShowPluginMenuW2800@@YAHXZ 000000018002ac28     ConEmuTh2800.obj
 0002:00009c48       $unwind$?LoadPanelItemInfoW2800@@YAXPEAUCeFullPanelInfo@@_J@Z 000000018002ac48     ConEmuTh2800.obj
 0002:00009c6c       $unwind$?SetCurrentPanelItemW2800@@YAXH_J0@Z 000000018002ac6c     ConEmuTh2800.obj
 0002:00009c84       $unwind$?SetCurrentPanelItemW2800Int@@YAXH_J0@Z 000000018002ac84     ConEmuTh2800.obj
 0002:00009ca4       $unwind$_call_matherr      000000018002aca4     libucrt:libm_error.obj
 0002:00009ca4       $unwind$?GetFarSetting@@YAHPEAX_KPEB_W@Z 000000018002aca4     ConEmuTh1900.obj
 0002:00009ca4       $unwind$?GetFarSetting@@YAHPEAX_KPEB_W@Z 000000018002aca4     ConEmuTh2800.obj
 0002:00009cac       $unwind$?SetStartupInfoW995@@YAXPEAX@Z 000000018002acac     ConEmuTh995.obj
 0002:00009cbc       $unwind$?ShowPluginMenuW995@@YAHXZ 000000018002acbc     ConEmuTh995.obj
 0002:00009cd4       $unwind$?LoadPanelItemInfoW995@@YAXPEAUCeFullPanelInfo@@_J@Z 000000018002acd4     ConEmuTh995.obj
 0002:00009cec       $unwind$?CheckFarPanelsW995@@YA_NXZ 000000018002acec     ConEmuTh995.obj
 0002:00009cfc       $unwind$?SetCurrentPanelItemW995@@YAXH_J0@Z 000000018002acfc     ConEmuTh995.obj
 0002:00009d1c       $unwind$?LoadPanelInfo995@@YAHH@Z 000000018002ad1c     ConEmuTh995.obj
 0002:00009d3c       $unwind$SetStartupInfo     000000018002ad3c     ConEmuThA.obj
 0002:00009d50       $unwind$strpbrk            000000018002ad50     libucrt:strpbrk.obj
 0002:00009d50       $unwind$?PostMacroA@@YAXPEAD@Z 000000018002ad50     ConEmuThA.obj
 0002:00009d50       $unwind$?PostMacroW995@@YAXPEA_W@Z 000000018002ad50     ConEmuTh995.obj
 0002:00009d60       $unwind$?GetMsgA@@YAPEB_WHPEA_W@Z 000000018002ad60     ConEmuThA.obj
 0002:00009d70       $unwind$?ShowPluginMenuA@@YAHXZ 000000018002ad70     ConEmuThA.obj
 0002:00009d90       $unwind$?LoadPanelInfoA@@YAHH@Z 000000018002ad90     ConEmuThA.obj
 0002:00009db0       $unwind$?CheckFarPanelsA@@YA_NXZ 000000018002adb0     ConEmuThA.obj
 0002:00009dc4       $unwind$?CheckPanelSettingsW995@@YAHH@Z 000000018002adc4     ConEmuTh995.obj
 0002:00009dc4       $unwind$?CheckPanelSettingsA@@YAHH@Z 000000018002adc4     ConEmuThA.obj
 0002:00009dc4       $unwind$?CheckThread@?$CQueueProcessor@PEAUIMAGE_CACHE_INFO@@@@IEAAJXZ 000000018002adc4     ImgCache.obj
 0002:00009dcc       $unwind$?SetCurrentPanelItemA@@YAXH_J0@Z 000000018002adcc     ConEmuThA.obj
 0002:00009dec       $unwind$?ReloadResourcesA@@YAXXZ 000000018002adec     ConEmuThA.obj
 0002:00009e00       $unwind$?RegisterPanelView@CeFullPanelInfo@@QEAAHXZ 000000018002ae00     Display.obj
 0002:00009e1c       $unwind$?UnregisterPanelView@CeFullPanelInfo@@QEAAH_N@Z 000000018002ae1c     Display.obj
 0002:00009e38       $unwind$?CreateView@CeFullPanelInfo@@QEAAPEAUHWND__@@XZ 000000018002ae38     Display.obj
 0002:00009e5c       $unwind$?ReallocItems@CeFullPanelInfo@@QEAAH_J@Z 000000018002ae5c     Display.obj
 0002:00009e7c       $stateUnwindMap$?ReallocItems@CeFullPanelInfo@@QEAAH_J@Z 000000018002ae7c     Display.obj
 0002:00009e88       $ip2state$?ReallocItems@CeFullPanelInfo@@QEAAH_J@Z 000000018002ae88     Display.obj
 0002:00009ea0       $unwind$?RequestSetPos@CeFullPanelInfo@@QEAAX_J0H@Z 000000018002aea0     Display.obj
 0002:00009eb0       $unwind$?PaintItem@CeFullPanelInfo@@QEAAHPEAUHDC__@@_JHHPEAUCePluginPanelItem@@PEAUCePluginPanelItemColor@@HHPEAUHBRUSH__@@4K@Z 000000018002aeb0     Display.obj
 0002:00009eb0       $unwind$?DisplayWndProc@CeFullPanelInfo@@SA_JPEAUHWND__@@I_K_J@Z 000000018002aeb0     Display.obj
 0002:00009ed0       $unwind$?DisplayThread@CeFullPanelInfo@@SAKPEAX@Z 000000018002aed0     Display.obj
 0002:00009ee0       $unwind$?Paint@CeFullPanelInfo@@QEAAXPEAUHWND__@@AEAUtagPAINTSTRUCT@@AEAUtagRECT@@@Z 000000018002aee0     Display.obj
 0002:00009f08       $stateUnwindMap$?Paint@CeFullPanelInfo@@QEAAXPEAUHWND__@@AEAUtagPAINTSTRUCT@@AEAUtagRECT@@@Z 000000018002af08     Display.obj
 0002:00009f10       $ip2state$?Paint@CeFullPanelInfo@@QEAAXPEAUHWND__@@AEAUtagPAINTSTRUCT@@AEAUtagRECT@@@Z 000000018002af10     Display.obj
 0002:00009f28       $unwind$?DrawItemText@CeFullPanelInfo@@QEAAHPEAUHDC__@@PEAUtagRECT@@1PEAUCePluginPanelItem@@PEB_WPEAUHBRUSH__@@H@Z 000000018002af28     Display.obj
 0002:00009f48       $unwind$?LoadItemColors@CeFullPanelInfo@@QEAAX_JPEAUCePluginPanelItem@@PEAUCePluginPanelItemColor@@HH@Z 000000018002af48     Display.obj
 0002:00009f60       $unwind$?FarItem2CeItem@CeFullPanelInfo@@QEAAH_JPEB_W1KU_FILETIME@@_KHPEAX3P6A_JXZ3K@Z 000000018002af60     Display.obj
 0002:00009f7c       $unwind$?CheckDrawDibCreated@CImgCache@@IEAAHXZ 000000018002af7c     ImgCache.obj
 0002:00009f7c       $unwind$?CheckLoadDibCreated@CImgCache@@IEAAHXZ 000000018002af7c     ImgCache.obj
 0002:00009f98       $unwind$?FindInCache@CImgCache@@IEAAHPEAUCePluginPanelItem@@PEAHI@Z 000000018002af98     ImgCache.obj
 0002:00009fb0       $unwind$?EntryPoint@@YAXH_J_N@Z 000000018002afb0     ConEmuTh.obj
 0002:00009fb0       $unwind$?CopyBits@CImgCache@@IEAAXU_COORD@@PEAEK01@Z 000000018002afb0     ImgCache.obj
 0002:00009fc8       $unwind$?LoadModules@CImgCache@@IEAAXXZ 000000018002afc8     ImgCache.obj
 0002:00009ff0       $unwind$?FreeModules@CImgCache@@IEAAXXZ 000000018002aff0     ImgCache.obj
 0002:00009ffc       $unwind$??1CImgCache@@QEAA@XZ 000000018002affc     ImgCache.obj
 0002:0000a010       $ip2state$??1CImgCache@@QEAA@XZ 000000018002b010     ImgCache.obj
 0002:0000a018       $unwind$?RequestItem@CImgCache@@QEAAHPEAUCePluginPanelItem@@I@Z 000000018002b018     ImgCache.obj
 0002:0000a030       $stateUnwindMap$?RequestItem@CImgCache@@QEAAHPEAUCePluginPanelItem@@I@Z 000000018002b030     ImgCache.obj
 0002:0000a038       $ip2state$?RequestItem@CImgCache@@QEAAHPEAUCePluginPanelItem@@I@Z 000000018002b038     ImgCache.obj
 0002:0000a050       $unwind$?PaintItem@CImgCache@@QEAAHPEAUHDC__@@HHHPEAUCePluginPanelItem@@PEAPEB_WPEAH@Z 000000018002b050     ImgCache.obj
 0002:0000a070       $unwind$?LoadThumbnail@CImgCache@@QEAAHPEAUIMAGE_CACHE_INFO@@@Z 000000018002b070     ImgCache.obj
 0002:0000a08c       $unwind$?LoadShellIcon@CImgCache@@QEAAHPEAUIMAGE_CACHE_INFO@@H@Z 000000018002b08c     ImgCache.obj
 0002:0000a0ac       $unwind$?FindOrCreate@?$CQueueProcessor@PEAUIMAGE_CACHE_INFO@@@@AEAAPEAUProcessingItem@1@AEBQEAUIMAGE_CACHE_INFO@@_J_NW4ProcessingPriority@@@Z 000000018002b0ac     ImgCache.obj
 0002:0000a0d0       $stateUnwindMap$?FindOrCreate@?$CQueueProcessor@PEAUIMAGE_CACHE_INFO@@@@AEAAPEAUProcessingItem@1@AEBQEAUIMAGE_CACHE_INFO@@_J_NW4ProcessingPriority@@@Z 000000018002b0d0     ImgCache.obj
 0002:0000a0d8       $ip2state$?FindOrCreate@?$CQueueProcessor@PEAUIMAGE_CACHE_INFO@@@@AEAAPEAUProcessingItem@1@AEBQEAUIMAGE_CACHE_INFO@@_J_NW4ProcessingPriority@@@Z 000000018002b0d8     ImgCache.obj
 0002:0000a0f0       $unwind$??0?$CQueueProcessor@PEAUIMAGE_CACHE_INFO@@@@QEAA@XZ 000000018002b0f0     ImgCache.obj
 0002:0000a104       $stateUnwindMap$??0?$CQueueProcessor@PEAUIMAGE_CACHE_INFO@@@@QEAA@XZ 000000018002b104     ImgCache.obj
 0002:0000a110       $ip2state$??0?$CQueueProcessor@PEAUIMAGE_CACHE_INFO@@@@QEAA@XZ 000000018002b110     ImgCache.obj
 0002:0000a128       $unwind$??1?$CQueueProcessor@PEAUIMAGE_CACHE_INFO@@@@UEAA@XZ 000000018002b128     ImgCache.obj
 0002:0000a138       $ip2state$??1?$CQueueProcessor@PEAUIMAGE_CACHE_INFO@@@@UEAA@XZ 000000018002b138     ImgCache.obj
 0002:0000a140       $unwind$?ProcessItem@?$CQueueProcessor@PEAUIMAGE_CACHE_INFO@@@@IEAAJPEAUProcessingItem@1@@Z 000000018002b140     ImgCache.obj
 0002:0000a160       $unwind$?ProcessingStep@?$CQueueProcessor@PEAUIMAGE_CACHE_INFO@@@@IEAA_NXZ 000000018002b160     ImgCache.obj
 0002:0000a184       $stateUnwindMap$?ProcessingStep@?$CQueueProcessor@PEAUIMAGE_CACHE_INFO@@@@IEAA_NXZ 000000018002b184     ImgCache.obj
 0002:0000a190       $ip2state$?ProcessingStep@?$CQueueProcessor@PEAUIMAGE_CACHE_INFO@@@@IEAA_NXZ 000000018002b190     ImgCache.obj
 0002:0000a1a8       $unwind$?msprintf@@YAPEB_WPEA_W_KPEB_WZZ 000000018002b1a8     common-kernel64:MStrSafe.obj
 0002:0000a1c8       $unwind$?LoadAdvApi@MNullDesc@@IEAAHXZ 000000018002b1c8     common-kernel64:MSecurity.obj
 0002:0000a1dc       $unwind$?LocalSecurity@MNullDesc@@QEAAPEAU_SECURITY_ATTRIBUTES@@XZ 000000018002b1dc     common-kernel64:MSecurity.obj
 0002:0000a1f8       $unwind$?ExecuteOpenPipe@@YAPEAXPEB_WAEAY0CAI@_W0KKHPEAXH@Z 000000018002b1f8     common-kernel64:ConEmuCheck.obj
 0002:0000a210       $unwind$??$free_environment@_W@@YAXQEAPEA_W@Z 000000018002b210     libucrt:environment_initialization.obj
 0002:0000a210       $unwind$??$free_environment@D@@YAXQEAPEAD@Z 000000018002b210     libucrt:environment_initialization.obj
 0002:0000a210       $unwind$?ExecutePrepareCmd@@YAXPEAUCESERVER_REQ@@K_K@Z 000000018002b210     common-kernel64:ConEmuCheck.obj
 0002:0000a210       $unwind$?ExecutePrepareCmd@@YAXPEAUCESERVER_REQ_HDR@@K_K@Z 000000018002b210     common-kernel64:ConEmuCheck.obj
 0002:0000a21c       $unwind$?ExecuteGuiCmd@@YAPEAUCESERVER_REQ@@PEAUHWND__@@PEAU1@0H@Z 000000018002b21c     common-kernel64:ConEmuCheck.obj
 0002:0000a23c       $unwind$?ExecuteCmd@@YAPEAUCESERVER_REQ@@PEB_WPEAU1@KPEAUHWND__@@HKH@Z 000000018002b23c     common-kernel64:ConEmuCheck.obj
 0002:0000a260       $unwind$?ModuleName@@YAPEB_WPEB_W@Z 000000018002b260     common-kernel64:ConEmuCheck.obj
 0002:0000a274       $unwind$?isTerminalMode@@YA_NXZ 000000018002b274     common-kernel64:MProcess.obj
 0002:0000a28c       $unwind$?Find@?$MToolHelp@UtagPROCESSENTRY32W@@$1?Process32FirstW@@YAHPEAXPEAU1@@Z$1?Process32NextW@@YAH01@Z@@QEAA_NP6A_NPEAUtagPROCESSENTRY32W@@_J@Z10@Z 000000018002b28c     common-kernel64:MProcess.obj
 0002:0000a2a4       $unwind$?Lock@MSection@@IEAAHHK@Z 000000018002b2a4     common-kernel64:MSection.obj
 0002:0000a2b8       $unwind$_invalid_parameter 000000018002b2b8     libucrt:invalid_parameter.obj
 0002:0000a2b8       $unwind$?apiCreateThread@@YAPEAXP6AKPEAX@Z0PEAKPEBDH@Z 000000018002b2b8     common-kernel64:WThreads.obj
 0002:0000a2d0       $unwind$?apiTerminateThreadEx@@YAHPEAXKPEBDH@Z 000000018002b2d0     common-kernel64:WThreads.obj
 0002:0000a2ec       $unwind$?SetThreadName@@YAXKPEAD@Z 000000018002b2ec     common-kernel64:WThreads.obj
 0002:0000a30c       $unwind$?apiThreadHelper@@YAKPEAX@Z 000000018002b30c     common-kernel64:WThreads.obj
 0002:0000a320       $unwind$?FileExists@@YA_NPEB_WPEAK@Z 000000018002b320     common-kernel64:WObjects.obj
 0002:0000a340       $unwind$?lstrmerge@@YAPEA_WPEB_W00000000@Z 000000018002b340     common-kernel64:MStrDup.obj
 0002:0000a360       $unwind$?RecreateAndLock@MSectionSimple@@QEAA_NXZ 000000018002b360     common-kernel64:MSectionSimple.obj
 0002:0000a368       $unwind$??0CEStr@@QEAA@PEB_W00000000@Z 000000018002b368     common-kernel64:CEStr.obj
 0002:0000a374       $unwind$??1CRgnDetect@@QEAA@XZ 000000018002b374     common-user64:RgnDetect.obj
 0002:0000a388       $ip2state$??1CRgnDetect@@QEAA@XZ 000000018002b388     common-user64:RgnDetect.obj
 0002:0000a390       $unwind$?PrepareTransparent@CRgnDetect@@QEAAXPEBUCEFAR_INFO_MAPPING@@PEBKPEBU_CONSOLE_SCREEN_BUFFER_INFO@@PEA_WPEAUtag_CharAttr@@HH@Z 000000018002b390     common-user64:RgnDetect.obj
 0002:0000a3b8       $unwind$?OnWriteConsoleOutput@CRgnDetect@@QEAAXPEBU_CHAR_INFO@@U_COORD@@1PEAU_SMALL_RECT@@PEBK@Z 000000018002b3b8     common-user64:RgnDetect.obj
 0002:0000a3d0       $unwind$?InitializeSBI@CRgnDetect@@QEAAHPEBK@Z 000000018002b3d0     common-user64:RgnDetect.obj
 0002:0000a3e8       $unwind$?DetectDialog@CRgnDetect@@IEAA_NPEA_WPEAUtag_CharAttr@@HHHHPEAH2@Z 000000018002b3e8     common-user64:RgnDetect.obj
 0002:0000a3f8       $unwind$?FindDialog_TopRight@CRgnDetect@@IEAA_NPEA_WPEAUtag_CharAttr@@HHAEAH222AEA_N@Z 000000018002b3f8     common-user64:RgnDetect.obj
 0002:0000a3f8       $unwind$__C_specific_handler 000000018002b3f8     libvcruntime:_riscchandler_.obj
 0002:0000a3f8       $unwind$__InternalCxxFrameHandler 000000018002b3f8     libvcruntime:frame.obj
 0002:0000a3f8       $unwind$?FindDialog_Right@CRgnDetect@@IEAA_NPEA_WPEAUtag_CharAttr@@HHAEAH222AEA_N@Z 000000018002b3f8     common-user64:RgnDetect.obj
 0002:0000a3f8       $unwind$?FindDialog_TopLeft@CRgnDetect@@IEAA_NPEA_WPEAUtag_CharAttr@@HHAEAH222AEA_N@Z 000000018002b3f8     common-user64:RgnDetect.obj
 0002:0000a414       $unwind$?FindDialog_Left@CRgnDetect@@IEAA_NPEA_WPEAUtag_CharAttr@@HHAEAH222AEA_N@Z 000000018002b414     common-user64:RgnDetect.obj
 0002:0000a42c       $unwind$?FindDialog_Any@CRgnDetect@@IEAA_NPEA_WPEAUtag_CharAttr@@HHAEAH222AEA_N@Z 000000018002b42c     common-user64:RgnDetect.obj
 0002:0000a444       $unwind$?FindFrame_TopLeft@CRgnDetect@@IEAA_NPEA_WPEAUtag_CharAttr@@HHAEAH222@Z 000000018002b444     common-user64:RgnDetect.obj
 0002:0000a460       $unwind$?FindFrameBottom_ByLeft@CRgnDetect@@IEAA_NPEA_WPEAUtag_CharAttr@@HHAEAH22@Z 000000018002b460     common-user64:RgnDetect.obj
 0002:0000a460       $unwind$?CalcTopPanelItem@CeFullPanelInfo@@QEAA_J_J0@Z 000000018002b460     Display.obj
 0002:0000a460       $unwind$?FindFrameLeft_ByBottom@CRgnDetect@@IEAA_NPEA_WPEAUtag_CharAttr@@HHAEAH22@Z 000000018002b460     common-user64:RgnDetect.obj
 0002:0000a460       $unwind$?FindFrameBottom_ByRight@CRgnDetect@@IEAA_NPEA_WPEAUtag_CharAttr@@HHAEAH22@Z 000000018002b460     common-user64:RgnDetect.obj
 0002:0000a46c       $unwind$?FindFrameRight_ByBottom@CRgnDetect@@IEAA_NPEA_WPEAUtag_CharAttr@@HHAEAH22@Z 000000018002b46c     common-user64:RgnDetect.obj
 0002:0000a46c       $unwind$?FindDialog_Inner@CRgnDetect@@IEAA_NPEA_WPEAUtag_CharAttr@@HHAEAH2@Z 000000018002b46c     common-user64:RgnDetect.obj
 0002:0000a480       $unwind$?FindFrameLeft_ByTop@CRgnDetect@@IEAA_NPEA_WPEAUtag_CharAttr@@HHAEAH22@Z 000000018002b480     common-user64:RgnDetect.obj
 0002:0000a480       $unwind$?FindFrameRight_ByTop@CRgnDetect@@IEAA_NPEA_WPEAUtag_CharAttr@@HHAEAH22@Z 000000018002b480     common-user64:RgnDetect.obj
 0002:0000a498       $unwind$?FindByBackground@CRgnDetect@@IEAA_NPEA_WPEAUtag_CharAttr@@HHAEAH222AEA_N@Z 000000018002b498     common-user64:RgnDetect.obj
 0002:0000a498       $unwind$?GetTableIndexFromLocaleName@@YAHPEB_W@Z 000000018002b498     libucrt:lcidtoname_downlevel.obj
 0002:0000a4b0       $unwind$?ExpandDialogFrame@CRgnDetect@@IEAA_NPEA_WPEAUtag_CharAttr@@HHAEAH2HH22@Z 000000018002b4b0     common-user64:RgnDetect.obj
 0002:0000a4c8       $unwind$?MarkDialog@CRgnDetect@@IEAAHPEA_WPEAUtag_CharAttr@@HHHHHHI_NK@Z 000000018002b4c8     common-user64:RgnDetect.obj
 0002:0000a4dc       $unwind$?SearchAppPaths@@YA_NPEB_WAEAUCEStr@@_NPEAU1@@Z 000000018002b4dc     common-user64:WFiles.obj
 0002:0000a504       $stateUnwindMap$?SearchAppPaths@@YA_NPEB_WAEAUCEStr@@_NPEAU1@@Z 000000018002b504     common-user64:WFiles.obj
 0002:0000a510       $ip2state$?SearchAppPaths@@YA_NPEB_WAEAUCEStr@@_NPEAU1@@Z 000000018002b510     common-user64:WFiles.obj
 0002:0000a528       $unwind$__GSHandlerCheckCommon 000000018002b528     LIBCMT:_gshandler_.obj
 0002:0000a530       $xdatasym                  000000018002b530     LIBCMT:_amdsecgs_.obj
 0002:0000a534       $unwind$?dllmain_crt_process_attach@@YAHQEAUHINSTANCE__@@QEAX@Z 000000018002b534     LIBCMT:dll_dllmain.obj
 0002:0000a560       $unwind$?dllmain_crt_process_detach@@YAH_N@Z 000000018002b560     LIBCMT:dll_dllmain.obj
 0002:0000a588       $unwind$?dllmain_dispatch@@YAHQEAUHINSTANCE__@@KQEAX@Z 000000018002b588     LIBCMT:dll_dllmain.obj
 0002:0000a5b0       $unwind$?filt$0@?0??dllmain_dispatch@@YAHQEAUHINSTANCE__@@KQEAX@Z@4HA 000000018002b5b0     LIBCMT:dll_dllmain.obj
 0002:0000a5b8       $unwind$_DllMainCRTStartup 000000018002b5b8     LIBCMT:dll_dllmain.obj
 0002:0000a5b8       $unwind$?ClearQueue@?$CQueueProcessor@PEAUIMAGE_CACHE_INFO@@@@AEAAXXZ 000000018002b5b8     ImgCache.obj
 0002:0000a5b8       $unwind$_exception_enabled 000000018002b5b8     libucrt:libm_error.obj
 0002:0000a5b8       $unwind$__acrt_getptd_noexit 000000018002b5b8     libucrt:per_thread_data.obj
 0002:0000a5b8       $unwind$??$common_lseek_nolock@_J@@YA_JH_JH@Z 000000018002b5b8     libucrt:lseek.obj
 0002:0000a5b8       $unwind$?AttachInt@CEStr@@AEAAPEB_WAEAPEA_W@Z 000000018002b5b8     common-kernel64:CEStr.obj
 0002:0000a5b8       $unwind$??R<lambda_ad1ced32f4ac17aa236e5ef05d6b3b7c>@@QEBAXXZ 000000018002b5b8     libucrt:mbctype.obj
 0002:0000a5b8       $unwind$?addsize@?$MArray@UtagPROCESSENTRY32W@@@@QEAAX_J@Z 000000018002b5b8     common-kernel64:MProcess.obj
 0002:0000a5b8       $unwind$?FinalRelease@CeFullPanelInfo@@QEAAXXZ 000000018002b5b8     Display.obj
 0002:0000a5b8       $unwind$_initterm_e        000000018002b5b8     libucrt:initterm.obj
 0002:0000a5b8       $unwind$__vcrt_getptd_noexit 000000018002b5b8     libvcruntime:per_thread_data.obj
 0002:0000a5b8       $unwind$__vcrt_FlsSetValue 000000018002b5b8     libvcruntime:winapi_downlevel.obj
 0002:0000a5b8       $unwind$?OnSettingsChanged@CeFullPanelInfo@@QEAAHH@Z 000000018002b5b8     Display.obj
 0002:0000a5b8       $unwind$__acrt_stdio_flush_nolock 000000018002b5b8     libucrt:fflush.obj
 0002:0000a5b8       $unwind$?push_back@?$MArray@UtagPROCESSENTRY32W@@@@QEAA_JAEBUtagPROCESSENTRY32W@@@Z 000000018002b5b8     common-kernel64:MProcess.obj
 0002:0000a5b8       $unwind$__acrt_LocaleNameToLCID 000000018002b5b8     libucrt:winapi_thunks.obj
 0002:0000a5b8       $unwind$__acrt_execute_uninitializers 000000018002b5b8     libucrt:shared_initialization.obj
 0002:0000a5b8       $unwind$?free_crt_array_internal@@YAXQEAPEBX_K@Z 000000018002b5b8     libucrt:inittime.obj
 0002:0000a5b8       $unwind$__acrt_FlsSetValue 000000018002b5b8     libucrt:winapi_thunks.obj
 0002:0000a5b8       $unwind$_RTC_Terminate     000000018002b5b8     LIBCMT:_initsect_.obj
 0002:0000a5b8       $unwind$_RTC_Initialize    000000018002b5b8     LIBCMT:_initsect_.obj
 0002:0000a5b8       $unwind$?ProcessSynchroEventCommon@@YAHHPEAX@Z 000000018002b5b8     ConEmuTh.obj
 0002:0000a5b8       $unwind$?Unquote@@YAPEB_WPEA_W_N@Z 000000018002b5b8     common-kernel64:CmdLine.obj
 0002:0000a5b8       $unwind$?Init@CImgCache@@QEAAXK@Z 000000018002b5b8     ImgCache.obj
 0002:0000a5c8       $unwind$__report_gsfailure 000000018002b5c8     LIBCMT:gs_report.obj
 0002:0000a5c8       $unwind$_putwch_nolock     000000018002b5c8     libucrt:putwch.obj
 0002:0000a5d0       $unwind$capture_current_context 000000018002b5d0     LIBCMT:gs_report.obj
 0002:0000a5dc       $unwind$capture_previous_context 000000018002b5dc     LIBCMT:gs_report.obj
 0002:0000a5e8       $unwind$__security_init_cookie 000000018002b5e8     LIBCMT:gs_support.obj
 0002:0000a5f4       $unwind$__scrt_is_nonwritable_in_current_image 000000018002b5f4     LIBCMT:utility.obj
 0002:0000a614       $unwind$__scrt_is_nonwritable_in_current_image$filt$0 000000018002b614     LIBCMT:utility.obj
 0002:0000a61c       $unwind$__scrt_initialize_onexit_tables 000000018002b61c     LIBCMT:utility.obj
 0002:0000a628       $unwind$__scrt_fastfail    000000018002b628     LIBCMT:utility_desktop.obj
 0002:0000a638       $unwind$__isa_available_init 000000018002b638     LIBCMT:_cpu_disp_.obj
 0002:0000a650       $xdatasym                  000000018002b650     LIBCMT:_guard_dispatch_.obj
 0002:0000a658       $xdatasym                  000000018002b658     LIBCMT:_rfgfailure_.obj
 0002:0000a668       $xdatasym                  000000018002b668     libvcruntime:memcpy.obj
 0002:0000a66c       $unwind$?_GetEstablisherFrame@@YAPEA_KPEA_KPEAU_xDISPATCHER_CONTEXT@@PEBU_s_FuncInfo@@0@Z 000000018002b66c     libvcruntime:risctrnsctrl.obj
 0002:0000a684       $unwind$?__FrameUnwindToEmptyState@@YAXPEA_KPEAU_xDISPATCHER_CONTEXT@@PEBU_s_FuncInfo@@@Z 000000018002b684     libvcruntime:risctrnsctrl.obj
 0002:0000a698       $unwind$_CallSETranslator  000000018002b698     libvcruntime:risctrnsctrl.obj
 0002:0000a6bc       $unwind$_CallSETranslator$filt$0 000000018002b6bc     libvcruntime:risctrnsctrl.obj
 0002:0000a6c8       $unwind$_UnwindNestedFrames 000000018002b6c8     libvcruntime:risctrnsctrl.obj
 0002:0000a6dc       $unwind$__acrt_InitializeCriticalSectionEx 000000018002b6dc     libucrt:winapi_thunks.obj
 0002:0000a6dc       $unwind$?xf_malloc@@YAPEAX_KPEBDH@Z 000000018002b6dc     common-kernel64:Memory.obj
 0002:0000a6dc       $unwind$?Set@CEStr@@QEAAPEB_WPEB_W_J@Z 000000018002b6dc     common-kernel64:CEStr.obj
 0002:0000a6dc       $unwind$__acrt_free_locale 000000018002b6dc     libucrt:locale_refcounting.obj
 0002:0000a6dc       $unwind$?ExecuteNewCmd@@YAPEAUCESERVER_REQ@@K_K@Z 000000018002b6dc     common-kernel64:ConEmuCheck.obj
 0002:0000a6dc       $unwind$?expand_if_necessary@?$argument_list@D@?A0xca0879c4@@AEAAHXZ 000000018002b6dc     libucrt:argv_wildcards.obj
 0002:0000a6dc       $unwind$?dllmain_raw@@YAHQEAUHINSTANCE__@@KQEAX@Z 000000018002b6dc     LIBCMT:dll_dllmain.obj
 0002:0000a6dc       $unwind$_seh_filter_exe    000000018002b6dc     libucrt:exception_filter.obj
 0002:0000a6dc       $unwind$__vcrt_InitializeCriticalSectionEx 000000018002b6dc     libvcruntime:winapi_downlevel.obj
 0002:0000a6dc       $unwind$?GetEnvVar@@YAPEA_WPEB_W@Z 000000018002b6dc     common-kernel64:WObjects.obj
 0002:0000a6dc       $unwind$?ExpandEnvStr@@YAPEA_WPEB_W@Z 000000018002b6dc     common-kernel64:WObjects.obj
 0002:0000a6dc       $unwind$?xf_set_tag@@YAXPEAXPEBDH_N@Z 000000018002b6dc     common-kernel64:Memory.obj
 0002:0000a6dc       $unwind$?xf_realloc@@YAPEAXPEAX_KPEBDH@Z 000000018002b6dc     common-kernel64:Memory.obj
 0002:0000a6dc       $unwind$??0CImgCache@@QEAA@PEAUHINSTANCE__@@@Z 000000018002b6dc     ImgCache.obj
 0002:0000a6dc       $unwind$?xf_calloc@@YAPEAX_K0PEBDH@Z 000000018002b6dc     common-kernel64:Memory.obj
 0002:0000a6dc       $unwind$?setSBCS@@YAXPEAU__crt_multibyte_data@@@Z 000000018002b6dc     libucrt:mbctype.obj
 0002:0000a6dc       $unwind$?_ExecutionInCatch@@YAHPEAU_xDISPATCHER_CONTEXT@@PEBU_s_FuncInfo@@@Z 000000018002b6dc     libvcruntime:risctrnsctrl.obj
 0002:0000a6dc       $unwind$?OpenPluginWcmn@@YAPEAXH_J_N@Z 000000018002b6dc     ConEmuTh.obj
 0002:0000a6dc       $unwind$?InitializeQueue@?$CQueueProcessor@PEAUIMAGE_CACHE_INFO@@@@AEAAXH@Z 000000018002b6dc     ImgCache.obj
 0002:0000a6dc       $unwind$?lstrdup@@YAPEA_WPEB_W_K@Z 000000018002b6dc     common-kernel64:MStrDup.obj
 0002:0000a6dc       $unwind$__acrt_lowio_create_handle_array 000000018002b6dc     libucrt:osfinfo.obj
 0002:0000a6dc       $unwind$__scrt_dllmain_exception_filter 000000018002b6dc     LIBCMT:utility.obj
 0002:0000a6dc       $unwind$_recalloc_base     000000018002b6dc     libucrt:recalloc.obj
 0002:0000a6dc       $unwind$__acrt_execute_initializers 000000018002b6dc     libucrt:shared_initialization.obj
 0002:0000a6dc       $unwind$?Reset@CImgCache@@QEAAXXZ 000000018002b6dc     ImgCache.obj
 0002:0000a6dc       $unwind$?ReleaseRef@MSection@@IEAAHK@Z 000000018002b6dc     common-kernel64:MSection.obj
 0002:0000a6dc       $unwind$?AddRef@MSection@@IEAAXK@Z 000000018002b6dc     common-kernel64:MSection.obj
 0002:0000a6f0       $unwind$__CxxFrameHandler3 000000018002b6f0     libvcruntime:risctrnsctrl.obj
 0002:0000a700       $xdatasym                  000000018002b700     libvcruntime:memcmp.obj
 0002:0000a708       $xdatasym                  000000018002b708     libvcruntime:memset.obj
 0002:0000a70c       $unwind$strrchr            000000018002b70c     libvcruntime:strrchr.obj
 0002:0000a70c       $unwind$strchr             000000018002b70c     libvcruntime:strchr.obj
 0002:0000a70c       $unwind$wcschr             000000018002b70c     libvcruntime:wcschr.obj
 0002:0000a718       $xdatasym                  000000018002b718     libvcruntime:memchr.obj
 0002:0000a71c       $unwind$__CxxCallCatchBlock 000000018002b71c     libvcruntime:frame.obj
 0002:0000a758       $unwind$__CxxCallCatchBlock$fin$1 000000018002b758     libvcruntime:frame.obj
 0002:0000a764       $unwind$?OnPostReadConsole@@YAHPEAXPEAU_INPUT_RECORD@@KPEAKPEAH@Z 000000018002b764     ConEmuTh.obj
 0002:0000a764       $unwind$__vcrt_initialize_locks 000000018002b764     libvcruntime:locks.obj
 0002:0000a764       $unwind$__acrt_stdio_free_buffer_nolock 000000018002b764     libucrt:_freebuf.obj
 0002:0000a764       $unwind$_IsExceptionObjectToBeDestroyed 000000018002b764     libvcruntime:ehhelpers.obj
 0002:0000a764       $unwind$?Lock@MSectionLock@@QEAAHPEAVMSection@@HK@Z 000000018002b764     common-kernel64:MSection.obj
 0002:0000a764       $unwind$?ShowMessageW1900@@YAHHH@Z 000000018002b764     ConEmuTh1900.obj
 0002:0000a764       $unwind$?Unlock@MSectionLock@@QEAAXXZ 000000018002b764     common-kernel64:MSection.obj
 0002:0000a764       $unwind$?OnReadyForPanelsReload@@YAXXZ 000000018002b764     ConEmuTh.obj
 0002:0000a764       $unwind$??1MSectionLock@@QEAA@XZ 000000018002b764     common-kernel64:MSection.obj
 0002:0000a764       $unwind$__vcrt_freeptd     000000018002b764     libvcruntime:per_thread_data.obj
 0002:0000a764       $unwind$??0MSectionSimple@@QEAA@_N@Z 000000018002b764     common-kernel64:MSectionSimple.obj
 0002:0000a764       $unwind$_SetImageBase      000000018002b764     libvcruntime:risctrnsctrl.obj
 0002:0000a764       $unwind$??1MSectionSimple@@QEAA@XZ 000000018002b764     common-kernel64:MSectionSimple.obj
 0002:0000a764       $unwind$__acrt_freeptd     000000018002b764     libucrt:per_thread_data.obj
 0002:0000a764       $unwind$?Init@MSectionSimple@@QEAAXXZ 000000018002b764     common-kernel64:MSectionSimple.obj
 0002:0000a764       $unwind$?__StateFromIp@@YAHPEBU_s_FuncInfo@@PEAU_xDISPATCHER_CONTEXT@@_K@Z 000000018002b764     libvcruntime:riscehstate.obj
 0002:0000a764       $unwind$?Close@MSectionSimple@@QEAAXXZ 000000018002b764     common-kernel64:MSectionSimple.obj
 0002:0000a764       $unwind$__acrt_initialize_locks 000000018002b764     libucrt:locks.obj
 0002:0000a764       $unwind$?TryEnter@MSectionSimple@@QEAA_NXZ 000000018002b764     common-kernel64:MSectionSimple.obj
 0002:0000a764       $unwind$?ReloadResourcesW@@YAXXZ 000000018002b764     ConEmuTh.obj
 0002:0000a764       $unwind$_SetThrowImageBase 000000018002b764     libvcruntime:risctrnsctrl.obj
 0002:0000a764       $unwind$?exit_or_terminate_process@@YAXI@Z 000000018002b764     libucrt:exit.obj
 0002:0000a764       $unwind$?__GetUnwindTryBlock@@YAHPEA_KPEAU_xDISPATCHER_CONTEXT@@PEBU_s_FuncInfo@@@Z 000000018002b764     libvcruntime:riscehstate.obj
 0002:0000a764       $unwind$??1?$MFileMapping@UPanelViewSetMapping@@@@QEAA@XZ 000000018002b764     ConEmuTh.obj
 0002:0000a764       $unwind$__acrt_uninitialize_stdio 000000018002b764     libucrt:_file.obj
 0002:0000a764       $unwind$__std_type_info_destroy_list 000000018002b764     libvcruntime:std_type_info.obj
 0002:0000a764       $unwind$__acrt_uninitialize_locks 000000018002b764     libucrt:locks.obj
 0002:0000a764       $unwind$?SavePathVar@CEStr@@QEAAXPEB_W@Z 000000018002b764     common-kernel64:CEStr.obj
 0002:0000a764       $unwind$?OnPostPeekConsole@@YAHPEAXPEAU_INPUT_RECORD@@KPEAKPEAH@Z 000000018002b764     ConEmuTh.obj
 0002:0000a764       $unwind$__acrt_uninitialize_winapi_thunks 000000018002b764     libucrt:winapi_thunks.obj
 0002:0000a764       $unwind$_CreateFrameInfo   000000018002b764     libvcruntime:risctrnsctrl.obj
 0002:0000a764       $unwind$?Close@CeFullPanelInfo@@QEAAXXZ 000000018002b764     Display.obj
 0002:0000a764       $unwind$strcpy_s           000000018002b764     libucrt:strcpy_s.obj
 0002:0000a764       $unwind$_calloc_base       000000018002b764     libucrt:calloc_base.obj
 0002:0000a764       $unwind$__vcrt_uninitialize_locks 000000018002b764     libvcruntime:locks.obj
 0002:0000a764       $unwind$??0bad_exception@std@@QEAA@AEBV01@@Z 000000018002b764     libvcruntime:frame.obj
 0002:0000a764       $unwind$_clrfp             000000018002b764     libucrt:fpctrl.obj
 0002:0000a764       $unwind$?ExitPlugin@@YAXXZ 000000018002b764     ConEmuTh.obj
 0002:0000a764       $unwind$?ShowMessageW2800@@YAHHH@Z 000000018002b764     ConEmuTh2800.obj
 0002:0000a764       $unwind$SetStartupInfoW    000000018002b764     ConEmuTh.obj
 0002:0000a764       $unwind$?ShowMessageA@@YAHHH@Z 000000018002b764     ConEmuThA.obj
 0002:0000a764       $unwind$__acrt_allocate_buffer_for_argv 000000018002b764     libucrt:argv_parsing.obj
 0002:0000a764       $unwind$_set_statfp        000000018002b764     libucrt:fpctrl.obj
 0002:0000a764       $unwind$__scrt_uninitialize_crt 000000018002b764     LIBCMT:utility.obj
 0002:0000a764       $unwind$uninitialize_allocated_memory 000000018002b764     libucrt:initialization.obj
 0002:0000a764       $unwind$?CheckWindows@@YA_NXZ 000000018002b764     ConEmuTh.obj
 0002:0000a764       $unwind$__scrt_initialize_crt 000000018002b764     LIBCMT:utility.obj
 0002:0000a764       $unwind$__scrt_release_startup_lock 000000018002b764     LIBCMT:utility.obj
 0002:0000a764       $unwind$initialize_pointers 000000018002b764     libucrt:initialization.obj
 0002:0000a764       $unwind$__raise_securityfailure 000000018002b764     LIBCMT:gs_report.obj
 0002:0000a764       $unwind$??0exception@std@@QEAA@AEBV01@@Z 000000018002b764     libvcruntime:frame.obj
 0002:0000a764       $unwind$?ShowMessageW995@@YAHHH@Z 000000018002b764     ConEmuTh995.obj
 0002:0000a764       $unwind$??_Gtype_info@@UEAAPEAXI@Z 000000018002b764     LIBCMT:std_type_info_static.obj
 0002:0000a764       $unwind$?ProcessItem@CImgLoader@@UEAAJAEAPEAUIMAGE_CACHE_INFO@@_J@Z 000000018002b764     ImgCache.obj
 0002:0000a764       $unwind$__acrt_update_multibyte_info 000000018002b764     libucrt:locale_update.obj
 0002:0000a764       $unwind$_fflush_nolock     000000018002b764     libucrt:fflush.obj
 0002:0000a764       $unwind$?Unlock@MSectionLockSimple@@QEAAXXZ 000000018002b764     common-kernel64:MSectionSimple.obj
 0002:0000a764       $unwind$__std_exception_destroy 000000018002b764     libvcruntime:std_exception.obj
 0002:0000a764       $unwind$__acrt_update_locale_info 000000018002b764     libucrt:locale_update.obj
 0002:0000a764       $unwind$_malloc_base       000000018002b764     libucrt:malloc_base.obj
 0002:0000a764       $unwind$?GetMaxCount@CEStr@@QEAA_JXZ 000000018002b764     common-kernel64:CEStr.obj
 0002:0000a764       $unwind$?ProcessingThread@?$CQueueProcessor@PEAUIMAGE_CACHE_INFO@@@@KAKPEAX@Z 000000018002b764     ImgCache.obj
 0002:0000a76c       $unwind$?GetFarRect@@YAHPEAU_SMALL_RECT@@@Z 000000018002b76c     ConEmuTh.obj
 0002:0000a76c       $unwind$??_G?$CQueueProcessor@PEAUIMAGE_CACHE_INFO@@@@UEAAPEAXI@Z 000000018002b76c     ImgCache.obj
 0002:0000a76c       $unwind$?getNext@?$MToolHelp@UtagPROCESSENTRY32W@@$1?Process32FirstW@@YAHPEAXPEAU1@@Z$1?Process32NextW@@YAH01@Z@@IEAA_NXZ 000000018002b76c     common-kernel64:MProcess.obj
 0002:0000a76c       $unwind$__acrt_errno_map_os_error 000000018002b76c     libucrt:errno.obj
 0002:0000a76c       $unwind$??$common_initialize_environment_nolock@D@@YAHXZ 000000018002b76c     libucrt:environment_initialization.obj
 0002:0000a76c       $unwind$?GetPluginInfoW2800@@YAXPEAX@Z 000000018002b76c     ConEmuTh2800.obj
 0002:0000a76c       $unwind$__acrt_invoke_user_matherr 000000018002b76c     libucrt:matherr.obj
 0002:0000a76c       $unwind$??1?$MToolHelp@UtagPROCESSENTRY32W@@$1?Process32FirstW@@YAHPEAXPEAU1@@Z$1?Process32NextW@@YAH01@Z@@UEAA@XZ 000000018002b76c     common-kernel64:MProcess.obj
 0002:0000a76c       $unwind$__acrt_FlsAlloc    000000018002b76c     libucrt:winapi_thunks.obj
 0002:0000a76c       $unwind$?LoadFarSettingsW995@@YAXPEAUCEFarInterfaceSettings@@PEAUCEFarPanelSettings@@@Z 000000018002b76c     ConEmuTh995.obj
 0002:0000a76c       $unwind$?GetFarRectW995@@YAXPEAU_SMALL_RECT@@@Z 000000018002b76c     ConEmuTh995.obj
 0002:0000a76c       $unwind$?Open@?$MToolHelp@UtagPROCESSENTRY32W@@$1?Process32FirstW@@YAHPEAXPEAU1@@Z$1?Process32NextW@@YAH01@Z@@QEAA_NXZ 000000018002b76c     common-kernel64:MProcess.obj
 0002:0000a76c       $unwind$__acrt_FlsFree     000000018002b76c     libucrt:winapi_thunks.obj
 0002:0000a76c       $unwind$__vcrt_FlsGetValue 000000018002b76c     libvcruntime:winapi_downlevel.obj
 0002:0000a76c       $unwind$?GetPluginInfoW995@@YAXPEAX@Z 000000018002b76c     ConEmuTh995.obj
 0002:0000a76c       $unwind$?LoadFarSettingsA@@YAXPEAUCEFarInterfaceSettings@@PEAUCEFarPanelSettings@@@Z 000000018002b76c     ConEmuThA.obj
 0002:0000a76c       $unwind$?CheckConEmu@@YAHH@Z 000000018002b76c     ConEmuTh.obj
 0002:0000a76c       $unwind$??_GCImgLoader@@UEAAPEAXI@Z 000000018002b76c     ImgCache.obj
 0002:0000a76c       $unwind$??0CRgnDetect@@QEAA@XZ 000000018002b76c     common-user64:RgnDetect.obj
 0002:0000a76c       $unwind$?OpenW2800@@YAPEAXPEBX@Z 000000018002b76c     ConEmuTh2800.obj
 0002:0000a76c       $unwind$_close_nolock      000000018002b76c     libucrt:close.obj
 0002:0000a76c       $unwind$__vcrt_FlsFree     000000018002b76c     libvcruntime:winapi_downlevel.obj
 0002:0000a76c       $unwind$??_Gexception@std@@UEAAPEAXI@Z 000000018002b76c     libvcruntime:frame.obj
 0002:0000a76c       $unwind$__vcrt_FlsAlloc    000000018002b76c     libvcruntime:winapi_downlevel.obj
 0002:0000a76c       $unwind$??_G?$MToolHelp@UtagPROCESSENTRY32W@@$1?Process32FirstW@@YAHPEAXPEAU1@@Z$1?Process32NextW@@YAH01@Z@@UEAAPEAXI@Z 000000018002b76c     common-kernel64:MProcess.obj
 0002:0000a76c       $unwind$?OnPrePeekConsole@@YAHPEAXPEAU_INPUT_RECORD@@KPEAKPEAH@Z 000000018002b76c     ConEmuTh.obj
 0002:0000a76c       $unwind$__acrt_FlsGetValue 000000018002b76c     libucrt:winapi_thunks.obj
 0002:0000a76c       $unwind$??$SafeDelete@UMSectionSimple@@@@YAXAEAPEAUMSectionSimple@@@Z 000000018002b76c     ImgCache.obj
 0002:0000a76c       $unwind$?GetPluginInfoW1900@@YAXPEAX@Z 000000018002b76c     ConEmuTh1900.obj
 0002:0000a76c       $unwind$_realloc_base      000000018002b76c     libucrt:realloc_base.obj
 0002:0000a76c       $unwind$?ExFilterRethrow@@YAHPEAU_EXCEPTION_POINTERS@@PEAUEHExceptionRecord@@PEAH@Z 000000018002b76c     libvcruntime:frame.obj
 0002:0000a76c       $unwind$strncpy_s          000000018002b76c     libucrt:strncpy_s.obj
 0002:0000a76c       $unwind$??_GMNullDesc@@QEAAPEAXI@Z 000000018002b76c     common-kernel64:MSecurity.obj
 0002:0000a76c       $unwind$_FindAndUnlinkFrame 000000018002b76c     libvcruntime:risctrnsctrl.obj
 0002:0000a76c       $unwind$??_G?$MFileMapping@Utag_DetectedDialog@@@@QEAAPEAXI@Z 000000018002b76c     ConEmuTh.obj
 0002:0000a76c       $unwind$OpenPlugin         000000018002b76c     ConEmuThA.obj
 0002:0000a76c       $unwind$?replace_current_thread_locale_nolock@@YAXQEAU__acrt_ptd@@QEAU__crt_locale_data@@@Z 000000018002b76c     libucrt:per_thread_data.obj
 0002:0000a76c       $unwind$?try_cor_exit_process@@YAXI@Z 000000018002b76c     libucrt:exit.obj
 0002:0000a76c       $unwind$??_GMToolHelpProcess@@UEAAPEAXI@Z 000000018002b76c     common-kernel64:MProcess.obj
 0002:0000a76c       $unwind$?DisplayReloadPanel@CeFullPanelInfo@@QEAAXXZ 000000018002b76c     Display.obj
 0002:0000a76c       $unwind$??_Gbad_exception@std@@UEAAPEAXI@Z 000000018002b76c     libvcruntime:frame.obj
 0002:0000a76c       $unwind$??1CEStr@@QEAA@XZ  000000018002b76c     common-kernel64:CEStr.obj
 0002:0000a76c       $unwind$GetPluginInfo      000000018002b76c     ConEmuThA.obj
 0002:0000a76c       $unwind$?PointToName@@YAPEB_WPEB_W@Z 000000018002b76c     common-kernel64:CmdLine.obj
 0002:0000a76c       $unwind$?SetCacheLocation@CImgCache@@QEAAXPEB_W@Z 000000018002b76c     ImgCache.obj
 0002:0000a76c       $unwind$?GetFarRectW2800@@YAXPEAU_SMALL_RECT@@@Z 000000018002b76c     ConEmuTh2800.obj
 0002:0000a76c       $unwind$?Unlock@MSection@@IEAAXH@Z 000000018002b76c     common-kernel64:MSection.obj
 0002:0000a76c       $unwind$??0_LocaleUpdate@@QEAA@QEAU__crt_locale_pointers@@@Z 000000018002b76c     libucrt:strtox.obj
 0002:0000a76c       $unwind$??0MSection@@QEAA@XZ 000000018002b76c     common-kernel64:MSection.obj
 0002:0000a76c       $unwind$_fclose_nolock     000000018002b76c     libucrt:fclose.obj
 0002:0000a76c       $unwind$__acrt_getptd      000000018002b76c     libucrt:per_thread_data.obj
 0002:0000a76c       $unwind$_callnewh          000000018002b76c     libucrt:new_handler.obj
 0002:0000a76c       $unwind$__acrt_uninitialize_lowio 000000018002b76c     libucrt:ioinit.obj
 0002:0000a76c       $unwind$?__SetUnwindTryBlock@@YAXPEA_KPEAU_xDISPATCHER_CONTEXT@@PEBU_s_FuncInfo@@H@Z 000000018002b76c     libvcruntime:riscehstate.obj
 0002:0000a76c       $unwind$?GetItemColors@CeFullPanelInfo@@QEAAPEAUHBRUSH__@@_JPEAUCePluginPanelItem@@PEAUCePluginPanelItemColor@@HAEAK3@Z 000000018002b76c     Display.obj
 0002:0000a76c       $unwind$??1MSection@@QEAA@XZ 000000018002b76c     common-kernel64:MSection.obj
 0002:0000a76c       $unwind$?GetFarRectW1900@@YAXPEAU_SMALL_RECT@@@Z 000000018002b76c     ConEmuTh1900.obj
 0002:0000a76c       $unwind$_updatetlocinfoEx_nolock 000000018002b76c     libucrt:locale_refcounting.obj
 0002:0000a778       $unwind$__BuildCatchObject 000000018002b778     libvcruntime:frame.obj
 0002:0000a7a4       $unwind$__acrt_initialize_stdio 000000018002b7a4     libucrt:_file.obj
 0002:0000a7a4       $unwind$?WaitUnlocked@MSection@@IEAAXKK@Z 000000018002b7a4     common-kernel64:MSection.obj
 0002:0000a7a4       $unwind$_initterm          000000018002b7a4     libucrt:initterm.obj
 0002:0000a7a4       $unwind$__TypeMatch        000000018002b7a4     libvcruntime:frame.obj
 0002:0000a7a4       $unwind$?Lock@MSectionLockSimple@@QEAAHPEAUMSectionSimple@@K@Z 000000018002b7a4     common-kernel64:MSectionSimple.obj
 0002:0000a7a4       $unwind$?Init@HkFunc@@QEAA_NPEB_WPEAUHINSTANCE__@@@Z 000000018002b7a4     common-kernel64:HkFunc.obj
 0002:0000a7a4       $unwind$__GSHandlerCheck_EH 000000018002b7a4     LIBCMT:gshandlereh.obj
 0002:0000a7a4       $unwind$?GetBuffer@CEStr@@QEAAPEA_W_J@Z 000000018002b7a4     common-kernel64:CEStr.obj
 0002:0000a7bc       $unwind$__FrameUnwindToState 000000018002b7bc     libvcruntime:frame.obj
 0002:0000a7f8       $unwind$?FindHandler@@YAXPEAUEHExceptionRecord@@PEA_KPEAU_CONTEXT@@PEAU_xDISPATCHER_CONTEXT@@PEBU_s_FuncInfo@@EH1@Z 000000018002b7f8     libvcruntime:frame.obj
 0002:0000a818       $unwind$?CatchIt@@YAXPEAUEHExceptionRecord@@PEA_KPEAU_CONTEXT@@PEAU_xDISPATCHER_CONTEXT@@PEBU_s_FuncInfo@@PEBU_s_HandlerType@@PEBU_s_CatchableType@@PEBU_s_TryBlockMapEntry@@H1EE@Z 000000018002b818     libvcruntime:frame.obj
 0002:0000a830       $unwind$?FindHandlerForForeignException@@YAXPEAUEHExceptionRecord@@PEA_KPEAU_CONTEXT@@PEAU_xDISPATCHER_CONTEXT@@PEBU_s_FuncInfo@@HH1@Z 000000018002b830     libvcruntime:frame.obj
 0002:0000a848       $unwind$__BuildCatchObjectHelper 000000018002b848     libvcruntime:frame.obj
 0002:0000a888       $xdatasym                  000000018002b888     libvcruntime:_jmpuwind_.obj
 0002:0000a89c       $unwind$__acrt_initialize_winapi_thunks 000000018002b89c     libucrt:winapi_thunks.obj
 0002:0000a89c       $unwind$__vcrt_initialize_winapi_thunks 000000018002b89c     libvcruntime:winapi_downlevel.obj
 0002:0000a8a4       $unwind$__vcrt_uninitialize_winapi_thunks 000000018002b8a4     libvcruntime:winapi_downlevel.obj
 0002:0000a8ac       $unwind$?try_get_function@@YAPEAXW4function_id@?A0x63058377@@QEBDQEBW4module_id@2@2@Z 000000018002b8ac     libucrt:winapi_thunks.obj
 0002:0000a8ac       $unwind$?try_get_function@@YAPEAXW4function_id@?A0x2db55455@@QEBDQEBW4module_id@2@2@Z 000000018002b8ac     libvcruntime:winapi_downlevel.obj
 0002:0000a8ac       $unwind$?IsInExceptionSpec@@YAEPEAUEHExceptionRecord@@PEBU_s_ESTypeList@@@Z 000000018002b8ac     libvcruntime:frame.obj
 0002:0000a8c8       $xdatasym                  000000018002b8c8     libvcruntime:handlers.obj
 0002:0000a8d0       $unwind$__DestructExceptionObject 000000018002b8d0     libvcruntime:ehhelpers.obj
 0002:0000a8f4       $unwind$_CxxThrowException 000000018002b8f4     libvcruntime:throw.obj
 0002:0000a908       $unwind$?common_exit@@YAXHW4_crt_exit_cleanup_mode@@W4_crt_exit_return_mode@@@Z 000000018002b908     libucrt:exit.obj
 0002:0000a948       $unwind$_configure_narrow_argv 000000018002b948     libucrt:argv_parsing.obj
 0002:0000a95c       $unwind$?MyEnterCriticalSection@MSection@@IEAA_NK@Z 000000018002b95c     common-kernel64:MSection.obj
 0002:0000a95c       $unwind$??$parse_command_line@D@@YAXPEADPEAPEAD0PEA_K2@Z 000000018002b95c     libucrt:argv_parsing.obj
 0002:0000a95c       $unwind$?_GetRangeOfTrysToCheck@@YAPEBU_s_TryBlockMapEntry@@PEA_KPEBU_s_FuncInfo@@HHPEAI2PEAU_xDISPATCHER_CONTEXT@@@Z 000000018002b95c     libvcruntime:risctrnsctrl.obj
 0002:0000a978       $unwind$??$create_environment@D@@YAQEAPEADQEAD@Z 000000018002b978     libucrt:environment_initialization.obj
 0002:0000a990       $unwind$_execute_onexit_table 000000018002b990     libucrt:onexit.obj
 0002:0000a998       $unwind$??$?RV<lambda_e24bbb7b643b32fcea6fa61b31d4c984>@@AEAV<lambda_275893d493268fdec8709772e3fcec0e>@@V<lambda_9d71df4d7cf3f480f8d633942495c3b0>@@@?$__crt_seh_guarded_call@H@@QEAAH$$QEAV<lambda_e24bbb7b643b32fcea6fa61b31d4c984>@@AEAV<lambda_275893d493268fdec8709772e3fcec0e>@@$$QEAV<lambda_9d71df4d7cf3f480f8d633942495c3b0>@@@Z 000000018002b998     libucrt:onexit.obj
 0002:0000a9c8       $unwind$__acrt_uninitialize_ptd 000000018002b9c8     libucrt:per_thread_data.obj
 0002:0000a9c8       $unwind$__vcrt_freefls     000000018002b9c8     libvcruntime:per_thread_data.obj
 0002:0000a9c8       $unwind$_GetThrowImageBase 000000018002b9c8     libvcruntime:risctrnsctrl.obj
 0002:0000a9c8       $unwind$__acrt_DownlevelLocaleNameToLCID 000000018002b9c8     libucrt:lcidtoname_downlevel.obj
 0002:0000a9c8       $unwind$?apiShowWindow@@YA_NPEAUHWND__@@H@Z 000000018002b9c8     common-user64:WUser.obj
 0002:0000a9c8       $unwind$__GSHandlerCheck   000000018002b9c8     LIBCMT:_gshandler_.obj
 0002:0000a9c8       $unwind$__acrt_release_locale_ref 000000018002b9c8     libucrt:locale_refcounting.obj
 0002:0000a9c8       $unwind$__vcrt_thread_detach 000000018002b9c8     libvcruntime:initialization.obj
 0002:0000a9c8       $unwind$_get_osfhandle     000000018002b9c8     libucrt:osfinfo.obj
 0002:0000a9c8       $unwind$_GetImageBase      000000018002b9c8     libvcruntime:risctrnsctrl.obj
 0002:0000a9c8       $unwind$_isatty            000000018002b9c8     libucrt:isatty.obj
 0002:0000a9c8       $unwind$__acrt_thread_attach 000000018002b9c8     libucrt:initialization.obj
 0002:0000a9c8       $unwind$ExitFARW           000000018002b9c8     ConEmuTh.obj
 0002:0000a9c8       $unwind$_set_errno_from_matherr 000000018002b9c8     libucrt:fpexcept.obj
 0002:0000a9c8       $unwind$__report_rangecheckfailure 000000018002b9c8     LIBCMT:gs_report.obj
 0002:0000a9c8       $unwind$GetMinFarVersion   000000018002b9c8     ConEmuThA.obj
 0002:0000a9c8       $unwind$__FrameUnwindFilter 000000018002b9c8     libvcruntime:ehhelpers.obj
 0002:0000a9c8       $unwind$__acrt_initialize_command_line 000000018002b9c8     libucrt:argv_data.obj
 0002:0000a9c8       $unwind$abort              000000018002b9c8     libucrt:abort.obj
 0002:0000a9c8       $unwind$__vcrt_initialize  000000018002b9c8     libvcruntime:initialization.obj
 0002:0000a9c8       $unwind$ExitFAR            000000018002b9c8     ConEmuThA.obj
 0002:0000a9c8       $unwind$?InvalidateAll@CeFullPanelInfo@@SAXXZ 000000018002b9c8     Display.obj
 0002:0000a9c8       $unwind$?ReloadPanelsInfoW1900@@YAXXZ 000000018002b9c8     ConEmuTh1900.obj
 0002:0000a9c8       $unwind$??1MSectionLockSimple@@QEAA@XZ 000000018002b9c8     common-kernel64:MSectionSimple.obj
 0002:0000a9c8       $unwind$__acrt_uninitialize_critical 000000018002b9c8     libucrt:initialization.obj
 0002:0000a9c8       $unwind$__vcrt_getptd      000000018002b9c8     libvcruntime:per_thread_data.obj
 0002:0000a9c8       $unwind$?OnThreadStarted@CImgLoader@@UEAAJXZ 000000018002b9c8     ImgCache.obj
 0002:0000a9c8       $unwind$__vcrt_uninitialize 000000018002b9c8     libvcruntime:initialization.obj
 0002:0000a9c8       $unwind$__acrt_initialize_heap 000000018002b9c8     libucrt:heap_handle.obj
 0002:0000a9c8       $unwind$?ExitFARW995@@YAXXZ 000000018002b9c8     ConEmuTh995.obj
 0002:0000a9c8       $unwind$?UpdateEnvVar@@YAXH@Z 000000018002b9c8     ConEmuTh.obj
 0002:0000a9c8       $unwind$_fileno            000000018002b9c8     libucrt:fileno.obj
 0002:0000a9c8       $unwind$?__GetCurrentState@@YAHPEA_KPEAU_xDISPATCHER_CONTEXT@@PEBU_s_FuncInfo@@@Z 000000018002b9c8     libvcruntime:riscehstate.obj
 0002:0000a9c8       $unwind$__scrt_initialize_default_local_stdio_options 000000018002b9c8     LIBCMT:default_local_stdio_options.obj
 0002:0000a9c8       $unwind$?ReloadPanelsInfoW995@@YAXXZ 000000018002b9c8     ConEmuTh995.obj
 0002:0000a9c8       $unwind$?LocalSecurity@@YAPEAU_SECURITY_ATTRIBUTES@@XZ 000000018002b9c8     common-kernel64:MSecurity.obj
 0002:0000a9c8       $unwind$_invoke_watson     000000018002b9c8     libucrt:invalid_parameter.obj
 0002:0000a9c8       $unwind$?ExecuteInMainThreadW995@@YAXPEAUConEmuThSynchroArg@@@Z 000000018002b9c8     ConEmuTh995.obj
 0002:0000a9c8       $unwind$?ReloadPanelsInfoW2800@@YAXXZ 000000018002b9c8     ConEmuTh2800.obj
 0002:0000a9c8       $unwind$_errno             000000018002b9c8     libucrt:errno.obj
 0002:0000a9c8       $unwind$__dcrt_terminate_console_output 000000018002b9c8     libucrt:initcon.obj
 0002:0000a9c8       $unwind$__acrt_thread_detach 000000018002b9c8     libucrt:initialization.obj
 0002:0000a9c8       $unwind$__doserrno         000000018002b9c8     libucrt:errno.obj
 0002:0000a9c8       $unwind$?CopyItem@?$CQueueProcessor@PEAUIMAGE_CACHE_INFO@@@@MEAAXPEBQEAUIMAGE_CACHE_INFO@@PEAPEAU2@@Z 000000018002b9c8     ImgCache.obj
 0002:0000a9c8       $unwind$?ProcessSynchroEventW3@@YA_JPEAX@Z 000000018002b9c8     ConEmuTh2800.obj
 0002:0000a9c8       $unwind$??$uninitialize_environment_internal@_W@@YAXAEAPEAPEA_W@Z 000000018002b9c8     libucrt:environment_initialization.obj
 0002:0000a9c8       $unwind$?ExecuteInMainThreadW2800@@YAXPEAUConEmuThSynchroArg@@@Z 000000018002b9c8     ConEmuTh2800.obj
 0002:0000a9c8       $unwind$??$uninitialize_environment_internal@D@@YAXAEAPEAPEAD@Z 000000018002b9c8     libucrt:environment_initialization.obj
 0002:0000a9c8       $unwind$?ExecuteInMainThreadW1900@@YAXPEAUConEmuThSynchroArg@@@Z 000000018002b9c8     ConEmuTh1900.obj
 0002:0000a9c8       $unwind$__vcrt_uninitialize_critical 000000018002b9c8     libvcruntime:initialization.obj
 0002:0000a9c8       $unwind$?PointToExt@@YAPEB_WPEB_W@Z 000000018002b9c8     common-kernel64:CmdLine.obj
 0002:0000a9c8       $unwind$__scrt_dllmain_crt_thread_detach 000000018002b9c8     LIBCMT:utility.obj
 0002:0000a9c8       $unwind$__dcrt_uninitialize_environments_nolock 000000018002b9c8     libucrt:environment_initialization.obj
 0002:0000a9c8       $unwind$_msize             000000018002b9c8     libucrt:msize.obj
 0002:0000a9c8       $unwind$?dllmain_crt_dispatch@@YAHQEAUHINSTANCE__@@KQEAX@Z 000000018002b9c8     LIBCMT:dll_dllmain.obj
 0002:0000a9c8       $unwind$__scrt_dllmain_crt_thread_attach 000000018002b9c8     LIBCMT:utility.obj
 0002:0000a9c8       $unwind$?ShutdownSecurity@@YAXXZ 000000018002b9c8     common-kernel64:MSecurity.obj
 0002:0000a9c8       $unwind$__scrt_dllmain_uninitialize_critical 000000018002b9c8     LIBCMT:utility.obj
 0002:0000a9c8       $unwind$__pctype_func      000000018002b9c8     libucrt:ctype.obj
 0002:0000a9c8       $unwind$?OpenW@@YAPEAXPEBUOpenInfo@@@Z 000000018002b9c8     ConEmuTh.obj
 0002:0000a9c8       $unwind$__acrt_initialize_multibyte 000000018002b9c8     libucrt:mbctype.obj
 0002:0000a9c8       $unwind$?ExitFARW2800@@YAXXZ 000000018002b9c8     ConEmuTh2800.obj
 0002:0000a9c8       $unwind$?ExitFARW3@@YAXPEAX@Z 000000018002b9c8     ConEmuTh.obj
 0002:0000a9c8       $unwind$initialize_c       000000018002b9c8     libucrt:initialization.obj
 0002:0000a9c8       $unwind$__scrt_dllmain_uninitialize_c 000000018002b9c8     LIBCMT:utility.obj
 0002:0000a9c8       $unwind$?ExitFARW1900@@YAXXZ 000000018002b9c8     ConEmuTh1900.obj
 0002:0000a9c8       $unwind$uninitialize_environment 000000018002b9c8     libucrt:initialization.obj
 0002:0000a9c8       $unwind$__scrt_dllmain_after_initialize_c 000000018002b9c8     LIBCMT:utility.obj
 0002:0000a9c8       $unwind$?ExecuteFreeResult@@YAXAEAPEAUCESERVER_REQ@@@Z 000000018002b9c8     common-kernel64:ConEmuCheck.obj
 0002:0000a9c8       $unwind$?initialize_multibyte@@YAHXZ 000000018002b9c8     libucrt:multibyte_initializer.obj
 0002:0000a9c8       $unwind$__vcrt_uninitialize_ptd 000000018002b9c8     libvcruntime:per_thread_data.obj
 0002:0000a9c8       $unwind$__scrt_dllmain_before_initialize_c 000000018002b9c8     LIBCMT:utility.obj
 0002:0000a9c8       $unwind$__scrt_acquire_startup_lock 000000018002b9c8     LIBCMT:utility.obj
 0002:0000a9c8       $unwind$?HeapDeinitialize@@YAXXZ 000000018002b9c8     common-kernel64:Memory.obj
 0002:0000a9c8       $unwind$?ReloadPanelsInfoA@@YAXXZ 000000018002b9c8     ConEmuThA.obj
 0002:0000a9c8       $unwind$__vcrt_initialize_ptd 000000018002b9c8     libvcruntime:per_thread_data.obj
 0002:0000a9c8       $unwind$?HeapInitialize@@YA_NXZ 000000018002b9c8     common-kernel64:Memory.obj
 0002:0000a9c8       $unwind$??2@YAPEAX_K@Z     000000018002b9c8     common-kernel64:Memory.obj
 0002:0000a9c8       $unwind$__vcrt_thread_attach 000000018002b9c8     libvcruntime:initialization.obj
 0002:0000a9c8       $unwind$__acrt_initialize_ptd 000000018002b9c8     libucrt:per_thread_data.obj
 0002:0000a9c8       $unwind$DllMain            000000018002b9c8     ConEmuTh.obj
 0002:0000a9c8       $unwind$_statfp            000000018002b9c8     libucrt:fpctrl.obj
 0002:0000a9d0       $unwind$terminate          000000018002b9d0     libucrt:terminate.obj
 0002:0000a9f0       $unwind$?ShowMessageW995@@YAHPEB_WH@Z 000000018002b9f0     ConEmuTh995.obj
 0002:0000a9f0       $unwind$_invalid_parameter_noinfo 000000018002b9f0     libucrt:invalid_parameter.obj
 0002:0000a9f0       $unwind$?ShowMessageA@@YAHPEBDH@Z 000000018002b9f0     ConEmuThA.obj
 0002:0000a9f0       $unwind$_log10_special     000000018002b9f0     libucrt:log_special.obj
 0002:0000a9f0       $unwind$?FreePanelItemUserData2800@@YAXPEAX_KP6A_JXZ@Z 000000018002b9f0     ConEmuTh2800.obj
 0002:0000a9f8       $unwind$__acrt_call_reportfault 000000018002b9f8     libucrt:invalid_parameter.obj
 0002:0000aa18       $unwind$?construct_ptd_array@@YAXQEAU__acrt_ptd@@@Z 000000018002ba18     libucrt:per_thread_data.obj
 0002:0000aa20       $unwind$?destroy_ptd_array@@YAXQEAU__acrt_ptd@@@Z 000000018002ba20     libucrt:per_thread_data.obj
 0002:0000aa28       $unwind$??$?RV<lambda_72d1df2b273a38828b1ce30cbf4cdab5>@@AEAV<lambda_876a65b173b8412d3a47c70a915b0cf4>@@V<lambda_41932305e351933ebe8f8be3ed8bb5dc>@@@?$__crt_seh_guarded_call@X@@QEAAX$$QEAV<lambda_72d1df2b273a38828b1ce30cbf4cdab5>@@AEAV<lambda_876a65b173b8412d3a47c70a915b0cf4>@@$$QEAV<lambda_41932305e351933ebe8f8be3ed8bb5dc>@@@Z 000000018002ba28     libucrt:per_thread_data.obj
 0002:0000aa4c       $unwind$??$?RV<lambda_5e887d1dcbef67a5eb4283622ba103bf>@@AEAV<lambda_4466841279450cc726390878d4a41900>@@V<lambda_341c25c0346d94847f1f3c463c57e077>@@@?$__crt_seh_guarded_call@X@@QEAAX$$QEAV<lambda_5e887d1dcbef67a5eb4283622ba103bf>@@AEAV<lambda_4466841279450cc726390878d4a41900>@@$$QEAV<lambda_341c25c0346d94847f1f3c463c57e077>@@@Z 000000018002ba4c     libucrt:per_thread_data.obj
 0002:0000aa70       $unwind$??$?RV<lambda_46352004c1216016012b18bd6f87e700>@@AEAV<lambda_3bd07e1a1191394380780325891bf33f>@@V<lambda_334532d3f185bcaa59b5be82d7d22bff>@@@?$__crt_seh_guarded_call@X@@QEAAX$$QEAV<lambda_46352004c1216016012b18bd6f87e700>@@AEAV<lambda_3bd07e1a1191394380780325891bf33f>@@$$QEAV<lambda_334532d3f185bcaa59b5be82d7d22bff>@@@Z 000000018002ba70     libucrt:per_thread_data.obj
 0002:0000aa94       $unwind$??$?RV<lambda_fb3a7dec4e47f37f22dae91bb15c9095>@@AEAV<lambda_698284760c8add0bfb0756c19673e34b>@@V<lambda_dfb8eca1e75fef3034a8fb18dd509707>@@@?$__crt_seh_guarded_call@X@@QEAAX$$QEAV<lambda_fb3a7dec4e47f37f22dae91bb15c9095>@@AEAV<lambda_698284760c8add0bfb0756c19673e34b>@@$$QEAV<lambda_dfb8eca1e75fef3034a8fb18dd509707>@@@Z 000000018002ba94     libucrt:per_thread_data.obj
 0002:0000aab8       $unwind$__acrt_uninitialize_locale 000000018002bab8     libucrt:wsetlocale.obj
 0002:0000aad8       $unwind$__acrt_is_packaged_app 000000018002bad8     libucrt:winapi_thunks.obj
 0002:0000aae4       $unwind$??$common_expand_argv_wildcards@D@@YAHQEAPEADQEAPEAPEAD@Z 000000018002bae4     libucrt:argv_wildcards.obj
 0002:0000aafc       $unwind$??$expand_argument_wildcards@D@@YAHQEAD0AEAV?$argument_list@D@?A0xca0879c4@@@Z 000000018002bafc     libucrt:argv_wildcards.obj
 0002:0000ab1c       $unwind$__acrt_update_thread_multibyte_data 000000018002bb1c     libucrt:mbctype.obj
 0002:0000ab40       $unwind$_setmbcp_nolock    000000018002bb40     libucrt:mbctype.obj
 0002:0000ab60       $unwind$_isleadbyte_l      000000018002bb60     libucrt:_wctype.obj
 0002:0000ab60       $unwind$?getSystemCP@@YAHH@Z 000000018002bb60     libucrt:mbctype.obj
 0002:0000ab68       $unwind$?setSBUpLow@@YAXPEAU__crt_multibyte_data@@@Z 000000018002bb68     libucrt:mbctype.obj
 0002:0000ab84       $unwind$?setmbcp_internal@@YAHH_N@Z 000000018002bb84     libucrt:mbctype.obj
 0002:0000ab94       $unwind$??$?RV<lambda_99476a1ad63dd22509b5d3e65b0ffc95>@@AEAV<lambda_ad1ced32f4ac17aa236e5ef05d6b3b7c>@@V<lambda_f7424dd8d45958661754dc4f2697e9c3>@@@?$__crt_seh_guarded_call@X@@QEAAX$$QEAV<lambda_99476a1ad63dd22509b5d3e65b0ffc95>@@AEAV<lambda_ad1ced32f4ac17aa236e5ef05d6b3b7c>@@$$QEAV<lambda_f7424dd8d45958661754dc4f2697e9c3>@@@Z 000000018002bb94     libucrt:mbctype.obj
 0002:0000abb8       $unwind$?x_ismbbtype_l@@YAHPEAU__crt_locale_pointers@@IHH@Z 000000018002bbb8     libucrt:ismbbyte.obj
 0002:0000abb8       $unwind$?PrepareTransparent@CRgnDetect@@QEAAXPEBUCEFAR_INFO_MAPPING@@PEBK@Z 000000018002bbb8     common-user64:RgnDetect.obj
 0002:0000abc8       $unwind$__dcrt_get_narrow_environment_from_os 000000018002bbc8     libucrt:get_environment_from_os.obj
 0002:0000abe0       $unwind$__acrt_initialize_lowio 000000018002bbe0     libucrt:ioinit.obj
 0002:0000ac00       $unwind$?initialize_inherited_file_handles_nolock@@YAXXZ 000000018002bc00     libucrt:ioinit.obj
 0002:0000ac1c       $unwind$_query_new_handler 000000018002bc1c     libucrt:new_handler.obj
 0002:0000ac3c       $unwind$__acrt_get_sigabrt_handler 000000018002bc3c     libucrt:signal.obj
 0002:0000ac44       $unwind$raise              000000018002bc44     libucrt:signal.obj
 0002:0000ac70       $unwind$??$?RV<lambda_c36588078e9f5dfd39652860aa6b3aaf>@@AEAV<lambda_ec61778202f4f5fc7e7711acc23c3bca>@@V<lambda_dc9d2797ccde5d239b4a0efae8ebd7db>@@@?$__crt_seh_guarded_call@P6AXH@Z@@QEAAP6AXH@Z$$QEAV<lambda_c36588078e9f5dfd39652860aa6b3aaf>@@AEAV<lambda_ec61778202f4f5fc7e7711acc23c3bca>@@$$QEAV<lambda_dc9d2797ccde5d239b4a0efae8ebd7db>@@@Z 000000018002bc70     libucrt:signal.obj
 0002:0000ac94       $unwind$_mbtowc_l          000000018002bc94     libucrt:mbtowc.obj
 0002:0000ac94       $unwind$__acrt_LCMapStringEx 000000018002bc94     libucrt:winapi_thunks.obj
 0002:0000acac       $unwind$__acrt_GetStringTypeA 000000018002bcac     libucrt:getstringtypea.obj
 0002:0000acd4       $unwind$__acrt_update_thread_locale_data 000000018002bcd4     libucrt:locale_refcounting.obj
 0002:0000acf8       $unwind$__acrt_locale_free_monetary 000000018002bcf8     libucrt:initmon.obj
 0002:0000ad00       $unwind$__acrt_locale_free_time 000000018002bd00     libucrt:inittime.obj
 0002:0000ad10       $unwind$qsort              000000018002bd10     libucrt:qsort.obj
 0002:0000ad28       $chain$4$qsort             000000018002bd28     libucrt:qsort.obj
 0002:0000ad4c       $chain$5$qsort             000000018002bd4c     libucrt:qsort.obj
 0002:0000ad5c       $unwind$?shortsort@@YAXPEAD0_KP6AHPEBX2@Z@Z 000000018002bd5c     libucrt:qsort.obj
 0002:0000ad6c       $chain$2$?shortsort@@YAXPEAD0_KP6AHPEBX2@Z@Z 000000018002bd6c     libucrt:qsort.obj
 0002:0000ad88       $chain$3$?shortsort@@YAXPEAD0_KP6AHPEBX2@Z@Z 000000018002bd88     libucrt:qsort.obj
 0002:0000ad98       $unwind$_mbsdec_l          000000018002bd98     libucrt:mbsdec.obj
 0002:0000ada4       $unwind$__acrt_LCMapStringA 000000018002bda4     libucrt:lcmapstringa.obj
 0002:0000adb4       $unwind$?__acrt_LCMapStringA_stat@@YAHPEAU__crt_locale_pointers@@PEB_WKPEBDHPEADHHH@Z 000000018002bdb4     libucrt:lcmapstringa.obj
 0002:0000addc       $unwind$_free_osfhnd       000000018002bddc     libucrt:osfinfo.obj
 0002:0000addc       $unwind$__std_exception_copy 000000018002bddc     libvcruntime:std_exception.obj
 0002:0000addc       $unwind$?initialize_stdio_handles_nolock@@YAXXZ 000000018002bddc     libucrt:ioinit.obj
 0002:0000adf0       $unwind$__acrt_lowio_destroy_handle_array 000000018002bdf0     libucrt:osfinfo.obj
 0002:0000ae00       $unwind$__acrt_lowio_ensure_fh_exists 000000018002be00     libucrt:osfinfo.obj
 0002:0000ae2c       $unwind$common_flush_all   000000018002be2c     libucrt:fflush.obj
 0002:0000ae68       $unwind$_fcloseall         000000018002be68     libucrt:closeall.obj
 0002:0000ae8c       $unwind$_close             000000018002be8c     libucrt:close.obj
 0002:0000ae8c       $unwind$_commit            000000018002be8c     libucrt:commit.obj
 0002:0000ae94       $unwind$??$?RV<lambda_b521505b218e5242e90febf6bfebc422>@@AEAV<lambda_6978c1fb23f02e42e1d9e99668cc68aa>@@V<lambda_314360699dd331753a4119843814e9a7>@@@?$__crt_seh_guarded_call@H@@QEAAH$$QEAV<lambda_b521505b218e5242e90febf6bfebc422>@@AEAV<lambda_6978c1fb23f02e42e1d9e99668cc68aa>@@$$QEAV<lambda_314360699dd331753a4119843814e9a7>@@@Z 000000018002be94     libucrt:commit.obj
 0002:0000aeb8       $unwind$_write             000000018002beb8     libucrt:write.obj
 0002:0000aee8       $unwind$_write_nolock      000000018002bee8     libucrt:write.obj
 0002:0000af00       $unwind$?write_double_translated_ansi_nolock@@YA?AUwrite_result@?A0x9c548279@@HQEBDI@Z 000000018002bf00     libucrt:write.obj
 0002:0000af20       $unwind$?write_text_utf16le_nolock@@YA?AUwrite_result@?A0x9c548279@@HQEBDI@Z 000000018002bf20     libucrt:write.obj
 0002:0000af20       $unwind$?write_text_ansi_nolock@@YA?AUwrite_result@?A0x9c548279@@HQEBDI@Z 000000018002bf20     libucrt:write.obj
 0002:0000af40       $unwind$?write_text_utf8_nolock@@YA?AUwrite_result@?A0x9c548279@@HQEBDI@Z 000000018002bf40     libucrt:write.obj
 0002:0000af68       $xdatasym                  000000018002bf68     libucrt:log10.obj
 0002:0000af74       $unwind$fclose             000000018002bf74     libucrt:fclose.obj
 0002:0000af98       $unwind$_handle_error      000000018002bf98     libucrt:libm_error.obj
 0002:0000afb8       $unwind$__acrt_initialize_fma3 000000018002bfb8     libucrt:fma3_available.obj
 0002:0000afc0       $unwind$_log_special_common 000000018002bfc0     libucrt:log_special.obj
 0002:0000afcc       $unwind$??$?RV<lambda_bfedae4ebbf01fab1bb6dcc6a9e276e0>@@AEAV<lambda_2fe9b910cf3cbf4a0ab98a02ba45b3ec>@@V<lambda_237c231691f317818eb88cc1d5d642d6>@@@?$__crt_seh_guarded_call@H@@QEAAH$$QEAV<lambda_bfedae4ebbf01fab1bb6dcc6a9e276e0>@@AEAV<lambda_2fe9b910cf3cbf4a0ab98a02ba45b3ec>@@$$QEAV<lambda_237c231691f317818eb88cc1d5d642d6>@@@Z 000000018002bfcc     libucrt:close.obj
 0002:0000aff0       $xdatasym                  000000018002bff0     libucrt:fpsr.obj
 0002:0000aff8       $unwind$__dcrt_lowio_initialize_console_output 000000018002bff8     libucrt:initcon.obj
 0002:0000aff8       $unwind$_raise_exc         000000018002bff8     libucrt:fpexcept.obj
 0002:0000b000       $unwind$_raise_exc_ex      000000018002c000     libucrt:fpexcept.obj
 0002:0000b014       $unwind$_ctrlfp            000000018002c014     libucrt:fpctrl.obj
 0002:0000b03c       $unwind$_IsNonwritableInCurrentImage 000000018002c03c     LIBCMT:pesect.obj
 0002:0000b060       $xdatasym                  000000018002c060     LIBCMT:_chkstk_.obj
 0002:0000b0f0       .edata                     000000018002c0f0     ConEmuTh.x64.exp
 0002:0000b118       rgpv                       000000018002c118     ConEmuTh.x64.exp
 0002:0000b14c       rgszName                   000000018002c14c     ConEmuTh.x64.exp
 0002:0000b180       rgwOrd                     000000018002c180     ConEmuTh.x64.exp
 0002:0000b19a       szName                     000000018002c19a     ConEmuTh.x64.exp
 0002:0000b1ab       $N00001                    000000018002c1ab     ConEmuTh.x64.exp
 0002:0000b1ba       $N00002                    000000018002c1ba     ConEmuTh.x64.exp
 0002:0000b1c0       $N00003                    000000018002c1c0     ConEmuTh.x64.exp
 0002:0000b1c8       $N00004                    000000018002c1c8     ConEmuTh.x64.exp
 0002:0000b1d1       $N00005                    000000018002c1d1     ConEmuTh.x64.exp
 0002:0000b1e0       $N00006                    000000018002c1e0     ConEmuTh.x64.exp
 0002:0000b1f1       $N00007                    000000018002c1f1     ConEmuTh.x64.exp
 0002:0000b203       $N00008                    000000018002c203     ConEmuTh.x64.exp
 0002:0000b211       $N00009                    000000018002c211     ConEmuTh.x64.exp
 0002:0000b21c       $N00010                    000000018002c21c     ConEmuTh.x64.exp
 0002:0000b228       $N00011                    000000018002c228     ConEmuTh.x64.exp
 0002:0000b23d       $N00012                    000000018002c23d     ConEmuTh.x64.exp
 0002:0000b24c       $N00013                    000000018002c24c     ConEmuTh.x64.exp
 0002:0000b9a2       .idata$6                   000000018002c9a2     version:VERSION.dll
 0002:0000bcd4       .idata$6                   000000018002ccd4     kernel32:KERNEL32.dll
 0002:0000bf68       .idata$6                   000000018002cf68     user32:USER32.dll
 0002:0000c0ba       .idata$6                   000000018002d0ba     gdi32:GDI32.dll
 0002:0000c11a       .idata$6                   000000018002d11a     advapi32:ADVAPI32.dll
 0002:0000c13a       .idata$6                   000000018002d13a     shell32:SHELL32.dll
 0002:0000c168       .idata$6                   000000018002d168     ole32:ole32.dll
 0003:00000100       ?__vcrt_flsindex@@3KA      000000018002e100     libvcruntime:per_thread_data.obj
 0003:00000114       errno_no_memory            000000018002e114     libucrt:errno.obj
 0003:00000118       doserrno_no_memory         000000018002e118     libucrt:errno.obj
 0003:0000011c       __acrt_flsindex            000000018002e11c     libucrt:per_thread_data.obj
 0003:000004c0       __rgctypeflag              000000018002e4c0     libucrt:mbctype.obj
 0003:000004d0       __rgcode_page_info         000000018002e4d0     libucrt:mbctype.obj
 0003:00000990       ?dazSupported@?1??_ctrlfp@@9@9 000000018002e990     libucrt:fpctrl.obj
 0003:00021a1c       ?sbInClearing@?1??ProcessConsoleInput@@YAHHPEAU_INPUT_RECORD@@KPEAK@Z@4_NA 000000018004fa1c     ConEmuTh.obj
 0003:00021a40       ?szMenu@?1??GetPluginInfoW1900@@YAXPEAX@Z@4PAPEA_WA 000000018004fa40     ConEmuTh1900.obj
 0003:00021a50       ?szMenu1@?1??GetPluginInfoW1900@@YAXPEAX@Z@4PA_WA 000000018004fa50     ConEmuTh1900.obj
 0003:00021c60       ?szMenu@?1??GetPluginInfoW2800@@YAXPEAX@Z@4PAPEA_WA 000000018004fc60     ConEmuTh2800.obj
 0003:00021c70       ?szMenu1@?1??GetPluginInfoW2800@@YAXPEAX@Z@4PA_WA 000000018004fc70     ConEmuTh2800.obj
 0003:00021e80       ?gszRootKeyW995@@3PEA_WEA  000000018004fe80     ConEmuTh995.obj
 0003:00021e88       ?szMenu@?1??GetPluginInfoW995@@YAXPEAX@Z@4PAPEA_WA 000000018004fe88     ConEmuTh995.obj
 0003:00021e90       ?szMenu1@?1??GetPluginInfoW995@@YAXPEAX@Z@4PA_WA 000000018004fe90     ConEmuTh995.obj
 0003:000220a0       ?gszRootKeyA@@3PEA_WEA     00000001800500a0     ConEmuThA.obj
 0003:000220a8       ?szMenu@?1??GetPluginInfo@@9@4PAPEADA 00000001800500a8     ConEmuThA.obj
 0003:000220b0       ?szMenu1@?1??GetPluginInfo@@9@4PADA 00000001800500b0     ConEmuThA.obj
 0003:000221d0       ?hClass@@3GA               00000001800501d0     Display.obj
 0003:00022220       ?szFile@?1??ModuleName@@YAPEB_WPEB_W@Z@4PA_WA 0000000180050220     common-kernel64:ConEmuCheck.obj
 0003:00022260       ?TerminalMode@?1??isTerminalMode@@YA_NXZ@4_NA 0000000180050260     common-kernel64:MProcess.obj
 0003:00022261       ?TerminalChecked@?1??isTerminalMode@@YA_NXZ@4_NA 0000000180050261     common-kernel64:MProcess.obj
 0003:00022280       ?g_Threads@@3PAUConEmuThreadInfo@@A 0000000180050280     common-kernel64:WThreads.obj
 0003:0002aa80       ?gh_UnknownTerminatedThread@@3PEAXEA 0000000180058a80     common-kernel64:WThreads.obj
 0003:0002aa90       ?is64bitOs@?1??IsWindows64@@YA_NXZ@4_NA 0000000180058a90     common-kernel64:WObjects.obj
 0003:0002aa91       ?isOsChecked@?1??IsWindows64@@YA_NXZ@4_NA 0000000180058a91     common-kernel64:WObjects.obj
 0003:0002aa92       ?gbInTransparentAssert@@3_NA 0000000180058a92     common-user64:RgnDetect.obj
 0003:0002aa94       ?__proc_attached@@3HA      0000000180058a94     LIBCMT:dll_dllmain.obj
 0003:0002aaa0       GS_ExceptionRecord         0000000180058aa0     LIBCMT:gs_report.obj
 0003:0002ab40       GS_ContextRecord           0000000180058b40     LIBCMT:gs_report.obj
 0003:0002b034       ?module_local_atexit_table_initialized@@3_NA 0000000180059034     LIBCMT:utility.obj
 0003:0002b040       ?module_local_atexit_table@@3U_onexit_table_t@@A 0000000180059040     LIBCMT:utility.obj
 0003:0002b058       ?module_local_at_quick_exit_table@@3U_onexit_table_t@@A 0000000180059058     LIBCMT:utility.obj
 0003:0002b070       ?is_initialized_as_dll@@3_NA 0000000180059070     LIBCMT:utility.obj
 0003:0002b080       ?__vcrt_startup_thread_ptd@@3U__vcrt_ptd@@A 0000000180059080     libvcruntime:per_thread_data.obj
 0003:0002b140       ?heap@@3V_HeapManager@@A   0000000180059140     libvcruntime:undname.obj
 0003:0002b168       __vcrt_lock_table          0000000180059168     libvcruntime:locks.obj
 0003:0002b190       __vcrt_locks_initialized   0000000180059190     libvcruntime:locks.obj
 0003:0002b198       ?module_handles@@3PAPEAUHINSTANCE__@@A 0000000180059198     libvcruntime:winapi_downlevel.obj
 0003:0002b1b0       ?encoded_function_pointers@@3PAPEAXA 00000001800591b0     libvcruntime:winapi_downlevel.obj
 0003:0002b1e8       c_termination_complete     00000001800591e8     libucrt:exit.obj
 0003:0002b1f0       thread_local_exit_callback_func 00000001800591f0     libucrt:exit.obj
 0003:0002b1f8       ?c_exit_complete@?5??common_exit@@YAXHW4_crt_exit_cleanup_mode@@W4_crt_exit_return_mode@@@Z@4_NA 00000001800591f8     libucrt:exit.obj
 0003:0002b200       ?program_name@?5???$common_configure_argv@D@@YAHW4_crt_argv_mode@@@Z@4PADA 0000000180059200     libucrt:argv_parsing.obj
 0003:0002b358       __acrt_invalid_parameter_handler 0000000180059358     libucrt:invalid_parameter.obj
 0003:0002b370       __acrt_lock_table          0000000180059370     libucrt:locks.obj
 0003:0002b578       __acrt_locks_initialized   0000000180059578     libucrt:locks.obj
 0003:0002b580       module_handles             0000000180059580     libucrt:winapi_thunks.obj
 0003:0002b620       encoded_function_pointers  0000000180059620     libucrt:winapi_thunks.obj
 0003:0002b720       ?state_cache@?1??__acrt_is_packaged_app@@9@4JA 0000000180059720     libucrt:winapi_thunks.obj
 0003:0002b73c       fSystemSet                 000000018005973c     libucrt:mbctype.obj
 0003:0002b748       ?initialized@?1??__acrt_initialize_multibyte@@9@4_NA 0000000180059748     libucrt:mbctype.obj
 0003:0002bb88       __acrt_new_handler         0000000180059b88     libucrt:new_handler.obj
 0003:0002bb90       ctrlc_action               0000000180059b90     libucrt:signal.obj
 0003:0002bb98       ctrlbreak_action           0000000180059b98     libucrt:signal.obj
 0003:0002bba0       abort_action               0000000180059ba0     libucrt:signal.obj
 0003:0002bba8       term_action                0000000180059ba8     libucrt:signal.obj
 0003:0002bbb0       user_matherr               0000000180059bb0     libucrt:matherr.obj
 0003:0002bbc8       __acrt_global_new_mode     0000000180059bc8     libucrt:new_mode.obj
 0003:0002bbe8       __acrt_app_type            0000000180059be8     libucrt:report_runtime_error.obj
 0004:00000000       $pdata$?ExitFARW3@@YAXPEAX@Z 000000018005a000     ConEmuTh.obj
 0004:00000000       $pdata$ExitFARW            000000018005a000     ConEmuTh.obj
 0004:0000000c       $pdata$??1?$MFileMapping@UPanelViewSetMapping@@@@QEAA@XZ 000000018005a00c     ConEmuTh.obj
 0004:00000018       $pdata$??_G?$MFileMapping@Utag_DetectedDialog@@@@QEAAPEAXI@Z 000000018005a018     ConEmuTh.obj
 0004:00000024       $pdata$?ChangeExports@@YA_NPEBUExportFunc@@PEAUHINSTANCE__@@@Z 000000018005a024     ConEmuTh.obj
 0004:00000030       $pdata$?CheckConEmu@@YAHH@Z 000000018005a030     ConEmuTh.obj
 0004:0000003c       $pdata$?CheckVarsInitialized@@YAXXZ 000000018005a03c     ConEmuTh.obj
 0004:00000048       $pdata$?CheckWindows@@YA_NXZ 000000018005a048     ConEmuTh.obj
 0004:00000054       $pdata$?EntryPoint@@YAXH_J_N@Z 000000018005a054     ConEmuTh.obj
 0004:00000060       $pdata$?ExecuteInMainThread@@YAXPEAUConEmuThSynchroArg@@@Z 000000018005a060     ConEmuTh.obj
 0004:0000006c       $pdata$?ExitPlugin@@YAXXZ  000000018005a06c     ConEmuTh.obj
 0004:00000078       $pdata$?FreeItem@CePluginPanelItem@@QEAAXXZ 000000018005a078     ConEmuTh.obj
 0004:00000084       $pdata$?FreeUserData@CePluginPanelItem@@QEAAXXZ 000000018005a084     ConEmuTh.obj
 0004:00000090       $pdata$?GetFarRect@@YAHPEAU_SMALL_RECT@@@Z 000000018005a090     ConEmuTh.obj
 0004:0000009c       $pdata$?GetMainThreadId@@YAKXZ 000000018005a09c     ConEmuTh.obj
 0004:000000a8       $pdata$?InitName@?$MFileMapping@Utag_DetectedDialog@@@@QEAAPEB_WPEB_WKK@Z 000000018005a0a8     ConEmuTh.obj
 0004:000000a8       $pdata$?InitName@?$MFileMapping@UPanelViewSetMapping@@@@QEAAPEB_WPEB_WKK@Z 000000018005a0a8     ConEmuTh.obj
 0004:000000b4       $pdata$?InternalOpenCreate@?$MFileMapping@UPanelViewSetMapping@@@@IEAAPEAUPanelViewSetMapping@@HHH@Z 000000018005a0b4     ConEmuTh.obj
 0004:000000c0       $pdata$?InternalOpenCreate@?$MFileMapping@Utag_DetectedDialog@@@@IEAAPEAUtag_DetectedDialog@@HHH@Z 000000018005a0c0     ConEmuTh.obj
 0004:000000cc       $pdata$?IsThumbnailsActive@@YAPEAUCeFullPanelInfo@@H@Z 000000018005a0cc     ConEmuTh.obj
 0004:000000d8       $pdata$?LoadFarVersion@@YAHXZ 000000018005a0d8     ConEmuTh.obj
 0004:000000e4       $pdata$?LoadFarVersion@@YA_NAEAUFarVersion@@AEAY0CAA@_W@Z 000000018005a0e4     ConEmuTh.obj
 0004:000000f0       $pdata$?LoadModuleVersion@@YA_NPEB_WAEAUtagVS_FIXEDFILEINFO@@PEA_W_K@Z 000000018005a0f0     ConEmuTh.obj
 0004:000000fc       $pdata$?LoadThSet@@YAHK@Z  000000018005a0fc     ConEmuTh.obj
 0004:00000108       $pdata$?OnPostPeekConsole@@YAHPEAXPEAU_INPUT_RECORD@@KPEAKPEAH@Z 000000018005a108     ConEmuTh.obj
 0004:00000114       $pdata$?OnPostReadConsole@@YAHPEAXPEAU_INPUT_RECORD@@KPEAKPEAH@Z 000000018005a114     ConEmuTh.obj
 0004:00000120       $pdata$?OnPrePeekConsole@@YAHPEAXPEAU_INPUT_RECORD@@KPEAKPEAH@Z 000000018005a120     ConEmuTh.obj
 0004:0000012c       $pdata$?OnPreWriteConsoleOutput@@YAHPEAXPEBU_CHAR_INFO@@U_COORD@@2PEAU_SMALL_RECT@@@Z 000000018005a12c     ConEmuTh.obj
 0004:00000138       $pdata$?OnReadyForPanelsReload@@YAXXZ 000000018005a138     ConEmuTh.obj
 0004:00000144       $pdata$?OpenPluginWcmn@@YAPEAXH_J_N@Z 000000018005a144     ConEmuTh.obj
 0004:00000150       $pdata$?OpenW@@YAPEAXPEBUOpenInfo@@@Z 000000018005a150     ConEmuTh.obj
 0004:0000015c       $pdata$?PostMacro@@YAXPEA_W@Z 000000018005a15c     ConEmuTh.obj
 0004:00000168       $pdata$?ProcessConsoleInput@@YAHHPEAU_INPUT_RECORD@@KPEAK@Z 000000018005a168     ConEmuTh.obj
 0004:00000174       $pdata$?ProcessSynchroEventCommon@@YAHHPEAX@Z 000000018005a174     ConEmuTh.obj
 0004:00000180       $pdata$?ReloadPanelsInfo@@YAXXZ 000000018005a180     ConEmuTh.obj
 0004:0000018c       $pdata$?ReloadResourcesW@@YAXXZ 000000018005a18c     ConEmuTh.obj
 0004:00000198       $pdata$?SavePanelViewState@@YAXHK@Z 000000018005a198     ConEmuTh.obj
 0004:000001a4       $pdata$?SettingsLoadOther@@YAXPEB_W@Z 000000018005a1a4     ConEmuTh.obj
 0004:000001b0       $pdata$?SettingsLoadReg@@YAHPEB_W0PEAK@Z 000000018005a1b0     ConEmuTh.obj
 0004:000001bc       $pdata$?SettingsSaveReg@@YAXPEB_W0PEAK@Z 000000018005a1bc     ConEmuTh.obj
 0004:000001c8       $pdata$?ShowLastError@@YAHXZ 000000018005a1c8     ConEmuTh.obj
 0004:000001d4       $pdata$?StartPlugin@@YAXH@Z 000000018005a1d4     ConEmuTh.obj
 0004:000001e0       $pdata$?StringCchCatW@@YAJPEA_W_KPEB_W@Z 000000018005a1e0     ConEmuTh.obj
 0004:000001ec       $pdata$?StringCchCopyW@@YAJPEA_W_KPEB_W@Z 000000018005a1ec     ConEmuTh.obj
 0004:000001f8       $pdata$?UpdateEnvVar@@YAXH@Z 000000018005a1f8     ConEmuTh.obj
 0004:00000204       $pdata$DllMain             000000018005a204     ConEmuTh.obj
 0004:00000210       $pdata$SetStartupInfoW     000000018005a210     ConEmuTh.obj
 0004:0000021c       $pdata$?CheckFarPanelsW1900@@YA_NXZ 000000018005a21c     ConEmuTh1900.obj
 0004:00000228       $pdata$?CheckPanelSettingsW1900@@YAHH@Z 000000018005a228     ConEmuTh1900.obj
 0004:00000234       $pdata$?Color2BgIndex@Far3Color@@SAXKHAEAGPEBK@Z 000000018005a234     ConEmuTh1900.obj
 0004:00000240       $pdata$?ExecuteInMainThreadW1900@@YAXPEAUConEmuThSynchroArg@@@Z 000000018005a240     ConEmuTh1900.obj
 0004:0000024c       $pdata$?ExitFARW1900@@YAXXZ 000000018005a24c     ConEmuTh1900.obj
 0004:00000258       $pdata$?FarColor_3_2@@YAEAEBUFarColor@@@Z 000000018005a258     ConEmuTh1900.obj
 0004:00000264       $pdata$?GetFarRectW1900@@YAXPEAU_SMALL_RECT@@@Z 000000018005a264     ConEmuTh1900.obj
 0004:00000270       $pdata$?GetFarSetting@@YAHPEAX_KPEB_W@Z 000000018005a270     ConEmuTh1900.obj
 0004:0000027c       $pdata$?GetPluginInfoW1900@@YAXPEAX@Z 000000018005a27c     ConEmuTh1900.obj
 0004:00000288       $pdata$?LoadFarSettingsW1900@@YAXPEAUCEFarInterfaceSettings@@PEAUCEFarPanelSettings@@@Z 000000018005a288     ConEmuTh1900.obj
 0004:00000294       $pdata$?LoadPanelInfoW1900@@YAHH@Z 000000018005a294     ConEmuTh1900.obj
 0004:000002a0       $pdata$?LoadPanelItemInfoW1900@@YAXPEAUCeFullPanelInfo@@_J@Z 000000018005a2a0     ConEmuTh1900.obj
 0004:000002ac       $pdata$?PostMacroW1900@@YAXPEA_W@Z 000000018005a2ac     ConEmuTh1900.obj
 0004:000002b8       $pdata$?ReloadPanelsInfoW1900@@YAXXZ 000000018005a2b8     ConEmuTh1900.obj
 0004:000002c4       $pdata$?SetCurrentPanelItemW1900@@YAXH_J0@Z 000000018005a2c4     ConEmuTh1900.obj
 0004:000002d0       $pdata$?SetStartupInfoW1900@@YAXPEAX@Z 000000018005a2d0     ConEmuTh1900.obj
 0004:000002dc       $pdata$?SettingsLoadW1900@@YAHPEB_WPEAK@Z 000000018005a2dc     ConEmuTh1900.obj
 0004:000002e8       $pdata$?SettingsSaveW1900@@YAXPEB_WPEAK@Z 000000018005a2e8     ConEmuTh1900.obj
 0004:000002f4       $pdata$?ShowMessageW1900@@YAHHH@Z 000000018005a2f4     ConEmuTh1900.obj
 0004:00000300       $pdata$?ShowMessageW1900@@YAHPEB_WH@Z 000000018005a300     ConEmuTh1900.obj
 0004:0000030c       $pdata$?ShowPluginMenuW1900@@YAHXZ 000000018005a30c     ConEmuTh1900.obj
 0004:00000318       $pdata$?CheckFarPanelsW2800@@YA_NXZ 000000018005a318     ConEmuTh2800.obj
 0004:00000324       $pdata$?CheckPanelSettingsW2800@@YAHH@Z 000000018005a324     ConEmuTh2800.obj
 0004:00000330       $pdata$?ExecuteInMainThreadW2800@@YAXPEAUConEmuThSynchroArg@@@Z 000000018005a330     ConEmuTh2800.obj
 0004:0000033c       $pdata$?ExitFARW2800@@YAXXZ 000000018005a33c     ConEmuTh2800.obj
 0004:00000348       $pdata$?FreePanelItemUserData2800@@YAXPEAX_KP6A_JXZ@Z 000000018005a348     ConEmuTh2800.obj
 0004:00000354       $pdata$?GetFarRectW2800@@YAXPEAU_SMALL_RECT@@@Z 000000018005a354     ConEmuTh2800.obj
 0004:00000360       $pdata$?GetFarSetting@@YAHPEAX_KPEB_W@Z 000000018005a360     ConEmuTh2800.obj
 0004:0000036c       $pdata$?GetPluginInfoW2800@@YAXPEAX@Z 000000018005a36c     ConEmuTh2800.obj
 0004:00000378       $pdata$?LoadFarSettingsW2800@@YAXPEAUCEFarInterfaceSettings@@PEAUCEFarPanelSettings@@@Z 000000018005a378     ConEmuTh2800.obj
 0004:00000384       $pdata$?LoadPanelInfoW2800@@YAHH@Z 000000018005a384     ConEmuTh2800.obj
 0004:00000390       $pdata$?LoadPanelItemInfoW2800@@YAXPEAUCeFullPanelInfo@@_J@Z 000000018005a390     ConEmuTh2800.obj
 0004:0000039c       $pdata$?OpenW2800@@YAPEAXPEBX@Z 000000018005a39c     ConEmuTh2800.obj
 0004:000003a8       $pdata$?PostMacroW2800@@YAXPEA_W@Z 000000018005a3a8     ConEmuTh2800.obj
 0004:000003b4       $pdata$?ProcessSynchroEventW3@@YA_JPEAX@Z 000000018005a3b4     ConEmuTh2800.obj
 0004:000003c0       $pdata$?ReloadPanelsInfoW2800@@YAXXZ 000000018005a3c0     ConEmuTh2800.obj
 0004:000003cc       $pdata$?SetCurrentPanelItemW2800@@YAXH_J0@Z 000000018005a3cc     ConEmuTh2800.obj
 0004:000003d8       $pdata$?SetCurrentPanelItemW2800Int@@YAXH_J0@Z 000000018005a3d8     ConEmuTh2800.obj
 0004:000003e4       $pdata$?SetStartupInfoW2800@@YAXPEAX@Z 000000018005a3e4     ConEmuTh2800.obj
 0004:000003f0       $pdata$?SettingsLoadW2800@@YAHPEB_WPEAK@Z 000000018005a3f0     ConEmuTh2800.obj
 0004:000003fc       $pdata$?SettingsSaveW2800@@YAXPEB_WPEAK@Z 000000018005a3fc     ConEmuTh2800.obj
 0004:00000408       $pdata$?ShowMessageW2800@@YAHHH@Z 000000018005a408     ConEmuTh2800.obj
 0004:00000414       $pdata$?ShowMessageW2800@@YAHPEB_WH@Z 000000018005a414     ConEmuTh2800.obj
 0004:00000420       $pdata$?ShowPluginMenuW2800@@YAHXZ 000000018005a420     ConEmuTh2800.obj
 0004:0000042c       $pdata$GetGlobalInfoW      000000018005a42c     ConEmuTh2800.obj
 0004:00000438       $pdata$?CheckFarPanelsW995@@YA_NXZ 000000018005a438     ConEmuTh995.obj
 0004:00000444       $pdata$?CheckPanelSettingsW995@@YAHH@Z 000000018005a444     ConEmuTh995.obj
 0004:00000450       $pdata$?ExecuteInMainThreadW995@@YAXPEAUConEmuThSynchroArg@@@Z 000000018005a450     ConEmuTh995.obj
 0004:0000045c       $pdata$?ExitFARW995@@YAXXZ 000000018005a45c     ConEmuTh995.obj
 0004:00000468       $pdata$?GetFarRectW995@@YAXPEAU_SMALL_RECT@@@Z 000000018005a468     ConEmuTh995.obj
 0004:00000474       $pdata$?GetPluginInfoW995@@YAXPEAX@Z 000000018005a474     ConEmuTh995.obj
 0004:00000480       $pdata$?LoadFarSettingsW995@@YAXPEAUCEFarInterfaceSettings@@PEAUCEFarPanelSettings@@@Z 000000018005a480     ConEmuTh995.obj
 0004:0000048c       $pdata$?LoadPanelInfo995@@YAHH@Z 000000018005a48c     ConEmuTh995.obj
 0004:00000498       $pdata$?LoadPanelItemInfoW995@@YAXPEAUCeFullPanelInfo@@_J@Z 000000018005a498     ConEmuTh995.obj
 0004:000004a4       $pdata$?PostMacroW995@@YAXPEA_W@Z 000000018005a4a4     ConEmuTh995.obj
 0004:000004b0       $pdata$?ReloadPanelsInfoW995@@YAXXZ 000000018005a4b0     ConEmuTh995.obj
 0004:000004bc       $pdata$?SetCurrentPanelItemW995@@YAXH_J0@Z 000000018005a4bc     ConEmuTh995.obj
 0004:000004c8       $pdata$?SetStartupInfoW995@@YAXPEAX@Z 000000018005a4c8     ConEmuTh995.obj
 0004:000004d4       $pdata$?ShowMessageW995@@YAHHH@Z 000000018005a4d4     ConEmuTh995.obj
 0004:000004e0       $pdata$?ShowMessageW995@@YAHPEB_WH@Z 000000018005a4e0     ConEmuTh995.obj
 0004:000004ec       $pdata$?ShowPluginMenuW995@@YAHXZ 000000018005a4ec     ConEmuTh995.obj
 0004:000004f8       $pdata$?CheckFarPanelsA@@YA_NXZ 000000018005a4f8     ConEmuThA.obj
 0004:00000504       $pdata$?CheckPanelSettingsA@@YAHH@Z 000000018005a504     ConEmuThA.obj
 0004:00000510       $pdata$?GetMsgA@@YAPEB_WHPEA_W@Z 000000018005a510     ConEmuThA.obj
 0004:0000051c       $pdata$?LoadFarSettingsA@@YAXPEAUCEFarInterfaceSettings@@PEAUCEFarPanelSettings@@@Z 000000018005a51c     ConEmuThA.obj
 0004:00000528       $pdata$?LoadPanelInfoA@@YAHH@Z 000000018005a528     ConEmuThA.obj
 0004:00000534       $pdata$?PostMacroA@@YAXPEAD@Z 000000018005a534     ConEmuThA.obj
 0004:00000540       $pdata$?ReloadPanelsInfoA@@YAXXZ 000000018005a540     ConEmuThA.obj
 0004:0000054c       $pdata$?ReloadResourcesA@@YAXXZ 000000018005a54c     ConEmuThA.obj
 0004:00000558       $pdata$?SetCurrentPanelItemA@@YAXH_J0@Z 000000018005a558     ConEmuThA.obj
 0004:00000564       $pdata$?ShowMessageA@@YAHHH@Z 000000018005a564     ConEmuThA.obj
 0004:00000570       $pdata$?ShowMessageA@@YAHPEBDH@Z 000000018005a570     ConEmuThA.obj
 0004:0000057c       $pdata$?ShowPluginMenuA@@YAHXZ 000000018005a57c     ConEmuThA.obj
 0004:00000588       $pdata$ExitFAR             000000018005a588     ConEmuThA.obj
 0004:00000594       $pdata$GetMinFarVersion    000000018005a594     ConEmuThA.obj
 0004:000005a0       $pdata$GetPluginInfo       000000018005a5a0     ConEmuThA.obj
 0004:000005ac       $pdata$OpenPlugin          000000018005a5ac     ConEmuThA.obj
 0004:000005b8       $pdata$SetStartupInfo      000000018005a5b8     ConEmuThA.obj
 0004:000005c4       $pdata$?CalcTopPanelItem@CeFullPanelInfo@@QEAA_J_J0@Z 000000018005a5c4     Display.obj
 0004:000005d0       $pdata$?Close@CeFullPanelInfo@@QEAAXXZ 000000018005a5d0     Display.obj
 0004:000005dc       $pdata$?CreateView@CeFullPanelInfo@@QEAAPEAUHWND__@@XZ 000000018005a5dc     Display.obj
 0004:000005e8       $pdata$?DisplayReloadPanel@CeFullPanelInfo@@QEAAXXZ 000000018005a5e8     Display.obj
 0004:000005f4       $pdata$?DisplayThread@CeFullPanelInfo@@SAKPEAX@Z 000000018005a5f4     Display.obj
 0004:00000600       $pdata$?DisplayWndProc@CeFullPanelInfo@@SA_JPEAUHWND__@@I_K_J@Z 000000018005a600     Display.obj
 0004:0000060c       $pdata$?DrawItemText@CeFullPanelInfo@@QEAAHPEAUHDC__@@PEAUtagRECT@@1PEAUCePluginPanelItem@@PEB_WPEAUHBRUSH__@@H@Z 000000018005a60c     Display.obj
 0004:00000618       $pdata$?FarItem2CeItem@CeFullPanelInfo@@QEAAH_JPEB_W1KU_FILETIME@@_KHPEAX3P6A_JXZ3K@Z 000000018005a618     Display.obj
 0004:00000624       $pdata$?FinalRelease@CeFullPanelInfo@@QEAAXXZ 000000018005a624     Display.obj
 0004:00000630       $pdata$?GetIndexFromWndCoord@CeFullPanelInfo@@QEAAHHHAEA_J@Z 000000018005a630     Display.obj
 0004:0000063c       $pdata$?GetItemColors@CeFullPanelInfo@@QEAAPEAUHBRUSH__@@_JPEAUCePluginPanelItem@@PEAUCePluginPanelItemColor@@HAEAK3@Z 000000018005a63c     Display.obj
 0004:00000648       $pdata$?Invalidate@CeFullPanelInfo@@QEAAXXZ 000000018005a648     Display.obj
 0004:00000654       $pdata$?InvalidateAll@CeFullPanelInfo@@SAXXZ 000000018005a654     Display.obj
 0004:00000660       $pdata$?LoadItemColors@CeFullPanelInfo@@QEAAX_JPEAUCePluginPanelItem@@PEAUCePluginPanelItemColor@@HH@Z 000000018005a660     Display.obj
 0004:0000066c       $pdata$?OnSettingsChanged@CeFullPanelInfo@@QEAAHH@Z 000000018005a66c     Display.obj
 0004:00000678       $pdata$?Paint@CeFullPanelInfo@@QEAAXPEAUHWND__@@AEAUtagPAINTSTRUCT@@AEAUtagRECT@@@Z 000000018005a678     Display.obj
 0004:00000684       $pdata$?PaintItem@CeFullPanelInfo@@QEAAHPEAUHDC__@@_JHHPEAUCePluginPanelItem@@PEAUCePluginPanelItemColor@@HHPEAUHBRUSH__@@4K@Z 000000018005a684     Display.obj
 0004:00000690       $pdata$?ReallocItems@CeFullPanelInfo@@QEAAH_J@Z 000000018005a690     Display.obj
 0004:0000069c       $pdata$?RegisterPanelView@CeFullPanelInfo@@QEAAHXZ 000000018005a69c     Display.obj
 0004:000006a8       $pdata$?RequestSetPos@CeFullPanelInfo@@QEAAX_J0H@Z 000000018005a6a8     Display.obj
 0004:000006b4       $pdata$?UnregisterPanelView@CeFullPanelInfo@@QEAAH_N@Z 000000018005a6b4     Display.obj
 0004:000006c0       $pdata$??$SafeDelete@UMSectionSimple@@@@YAXAEAPEAUMSectionSimple@@@Z 000000018005a6c0     ImgCache.obj
 0004:000006cc       $pdata$??0?$CQueueProcessor@PEAUIMAGE_CACHE_INFO@@@@QEAA@XZ 000000018005a6cc     ImgCache.obj
 0004:000006d8       $pdata$??0CImgCache@@QEAA@PEAUHINSTANCE__@@@Z 000000018005a6d8     ImgCache.obj
 0004:000006e4       $pdata$??1?$CQueueProcessor@PEAUIMAGE_CACHE_INFO@@@@UEAA@XZ 000000018005a6e4     ImgCache.obj
 0004:000006f0       $pdata$??1CImgCache@@QEAA@XZ 000000018005a6f0     ImgCache.obj
 0004:000006fc       $pdata$??_GCImgLoader@@UEAAPEAXI@Z 000000018005a6fc     ImgCache.obj
 0004:000006fc       $pdata$??_G?$CQueueProcessor@PEAUIMAGE_CACHE_INFO@@@@UEAAPEAXI@Z 000000018005a6fc     ImgCache.obj
 0004:00000708       $pdata$?CheckDrawDibCreated@CImgCache@@IEAAHXZ 000000018005a708     ImgCache.obj
 0004:00000714       $pdata$?CheckLoadDibCreated@CImgCache@@IEAAHXZ 000000018005a714     ImgCache.obj
 0004:00000720       $pdata$?CheckThread@?$CQueueProcessor@PEAUIMAGE_CACHE_INFO@@@@IEAAJXZ 000000018005a720     ImgCache.obj
 0004:0000072c       $pdata$?ClearQueue@?$CQueueProcessor@PEAUIMAGE_CACHE_INFO@@@@AEAAXXZ 000000018005a72c     ImgCache.obj
 0004:00000738       $pdata$?CopyBits@CImgCache@@IEAAXU_COORD@@PEAEK01@Z 000000018005a738     ImgCache.obj
 0004:00000744       $pdata$?CopyItem@?$CQueueProcessor@PEAUIMAGE_CACHE_INFO@@@@MEAAXPEBQEAUIMAGE_CACHE_INFO@@PEAPEAU2@@Z 000000018005a744     ImgCache.obj
 0004:00000750       $pdata$?FindInCache@CImgCache@@IEAAHPEAUCePluginPanelItem@@PEAHI@Z 000000018005a750     ImgCache.obj
 0004:0000075c       $pdata$?FindOrCreate@?$CQueueProcessor@PEAUIMAGE_CACHE_INFO@@@@AEAAPEAUProcessingItem@1@AEBQEAUIMAGE_CACHE_INFO@@_J_NW4ProcessingPriority@@@Z 000000018005a75c     ImgCache.obj
 0004:00000768       $pdata$?FreeModules@CImgCache@@IEAAXXZ 000000018005a768     ImgCache.obj
 0004:00000774       $pdata$?Init@CImgCache@@QEAAXK@Z 000000018005a774     ImgCache.obj
 0004:00000780       $pdata$?InitializeQueue@?$CQueueProcessor@PEAUIMAGE_CACHE_INFO@@@@AEAAXH@Z 000000018005a780     ImgCache.obj
 0004:0000078c       $pdata$?LoadModules@CImgCache@@IEAAXXZ 000000018005a78c     ImgCache.obj
 0004:00000798       $pdata$?LoadShellIcon@CImgCache@@QEAAHPEAUIMAGE_CACHE_INFO@@H@Z 000000018005a798     ImgCache.obj
 0004:000007a4       $pdata$?LoadThumbnail@CImgCache@@QEAAHPEAUIMAGE_CACHE_INFO@@@Z 000000018005a7a4     ImgCache.obj
 0004:000007b0       $pdata$?OnThreadStarted@CImgLoader@@UEAAJXZ 000000018005a7b0     ImgCache.obj
 0004:000007bc       $pdata$?PaintItem@CImgCache@@QEAAHPEAUHDC__@@HHHPEAUCePluginPanelItem@@PEAPEB_WPEAH@Z 000000018005a7bc     ImgCache.obj
 0004:000007c8       $pdata$?ProcessItem@?$CQueueProcessor@PEAUIMAGE_CACHE_INFO@@@@IEAAJPEAUProcessingItem@1@@Z 000000018005a7c8     ImgCache.obj
 0004:000007d4       $pdata$?ProcessItem@CImgLoader@@UEAAJAEAPEAUIMAGE_CACHE_INFO@@_J@Z 000000018005a7d4     ImgCache.obj
 0004:000007e0       $pdata$?ProcessingStep@?$CQueueProcessor@PEAUIMAGE_CACHE_INFO@@@@IEAA_NXZ 000000018005a7e0     ImgCache.obj
 0004:000007ec       $pdata$?ProcessingThread@?$CQueueProcessor@PEAUIMAGE_CACHE_INFO@@@@KAKPEAX@Z 000000018005a7ec     ImgCache.obj
 0004:000007f8       $pdata$?RequestItem@CImgCache@@QEAAHPEAUCePluginPanelItem@@I@Z 000000018005a7f8     ImgCache.obj
 0004:00000804       $pdata$?Reset@CImgCache@@QEAAXXZ 000000018005a804     ImgCache.obj
 0004:00000810       $pdata$?SetCacheLocation@CImgCache@@QEAAXPEB_W@Z 000000018005a810     ImgCache.obj
 0004:0000081c       $pdata$??2@YAPEAX_K@Z      000000018005a81c     common-kernel64:Memory.obj
 0004:00000828       $pdata$?HeapDeinitialize@@YAXXZ 000000018005a828     common-kernel64:Memory.obj
 0004:00000834       $pdata$?HeapInitialize@@YA_NXZ 000000018005a834     common-kernel64:Memory.obj
 0004:00000840       $pdata$?xf_calloc@@YAPEAX_K0PEBDH@Z 000000018005a840     common-kernel64:Memory.obj
 0004:0000084c       $pdata$?xf_free@@YAXPEAXPEBDH@Z 000000018005a84c     common-kernel64:Memory.obj
 0004:00000858       $pdata$?xf_malloc@@YAPEAX_KPEBDH@Z 000000018005a858     common-kernel64:Memory.obj
 0004:00000864       $pdata$?xf_realloc@@YAPEAXPEAX_KPEBDH@Z 000000018005a864     common-kernel64:Memory.obj
 0004:00000870       $pdata$?xf_set_tag@@YAXPEAXPEBDH_N@Z 000000018005a870     common-kernel64:Memory.obj
 0004:0000087c       $pdata$?msprintf@@YAPEB_WPEA_W_KPEB_WZZ 000000018005a87c     common-kernel64:MStrSafe.obj
 0004:00000888       $pdata$??_GMNullDesc@@QEAAPEAXI@Z 000000018005a888     common-kernel64:MSecurity.obj
 0004:00000894       $pdata$?LoadAdvApi@MNullDesc@@IEAAHXZ 000000018005a894     common-kernel64:MSecurity.obj
 0004:000008a0       $pdata$?LocalSecurity@@YAPEAU_SECURITY_ATTRIBUTES@@XZ 000000018005a8a0     common-kernel64:MSecurity.obj
 0004:000008ac       $pdata$?LocalSecurity@MNullDesc@@QEAAPEAU_SECURITY_ATTRIBUTES@@XZ 000000018005a8ac     common-kernel64:MSecurity.obj
 0004:000008b8       $pdata$?ShutdownSecurity@@YAXXZ 000000018005a8b8     common-kernel64:MSecurity.obj
 0004:000008c4       $pdata$?ExecuteCmd@@YAPEAUCESERVER_REQ@@PEB_WPEAU1@KPEAUHWND__@@HKH@Z 000000018005a8c4     common-kernel64:ConEmuCheck.obj
 0004:000008d0       $pdata$?ExecuteFreeResult@@YAXAEAPEAUCESERVER_REQ@@@Z 000000018005a8d0     common-kernel64:ConEmuCheck.obj
 0004:000008dc       $pdata$?ExecuteGuiCmd@@YAPEAUCESERVER_REQ@@PEAUHWND__@@PEAU1@0H@Z 000000018005a8dc     common-kernel64:ConEmuCheck.obj
 0004:000008e8       $pdata$?ExecuteNewCmd@@YAPEAUCESERVER_REQ@@K_K@Z 000000018005a8e8     common-kernel64:ConEmuCheck.obj
 0004:000008f4       $pdata$?ExecuteOpenPipe@@YAPEAXPEB_WAEAY0CAI@_W0KKHPEAXH@Z 000000018005a8f4     common-kernel64:ConEmuCheck.obj
 0004:00000900       $pdata$?ExecutePrepareCmd@@YAXPEAUCESERVER_REQ@@K_K@Z 000000018005a900     common-kernel64:ConEmuCheck.obj
 0004:0000090c       $pdata$?ExecutePrepareCmd@@YAXPEAUCESERVER_REQ_HDR@@K_K@Z 000000018005a90c     common-kernel64:ConEmuCheck.obj
 0004:00000918       $pdata$?ModuleName@@YAPEB_WPEB_W@Z 000000018005a918     common-kernel64:ConEmuCheck.obj
 0004:00000924       $pdata$??1?$MToolHelp@UtagPROCESSENTRY32W@@$1?Process32FirstW@@YAHPEAXPEAU1@@Z$1?Process32NextW@@YAH01@Z@@UEAA@XZ 000000018005a924     common-kernel64:MProcess.obj
 0004:00000930       $pdata$??_G?$MToolHelp@UtagPROCESSENTRY32W@@$1?Process32FirstW@@YAHPEAXPEAU1@@Z$1?Process32NextW@@YAH01@Z@@UEAAPEAXI@Z 000000018005a930     common-kernel64:MProcess.obj
 0004:00000930       $pdata$??_GMToolHelpProcess@@UEAAPEAXI@Z 000000018005a930     common-kernel64:MProcess.obj
 0004:0000093c       $pdata$?Find@?$MToolHelp@UtagPROCESSENTRY32W@@$1?Process32FirstW@@YAHPEAXPEAU1@@Z$1?Process32NextW@@YAH01@Z@@QEAA_NP6A_NPEAUtagPROCESSENTRY32W@@_J@Z10@Z 000000018005a93c     common-kernel64:MProcess.obj
 0004:00000948       $pdata$?Open@?$MToolHelp@UtagPROCESSENTRY32W@@$1?Process32FirstW@@YAHPEAXPEAU1@@Z$1?Process32NextW@@YAH01@Z@@QEAA_NXZ 000000018005a948     common-kernel64:MProcess.obj
 0004:00000954       $pdata$?addsize@?$MArray@UtagPROCESSENTRY32W@@@@QEAAX_J@Z 000000018005a954     common-kernel64:MProcess.obj
 0004:00000960       $pdata$?getNext@?$MToolHelp@UtagPROCESSENTRY32W@@$1?Process32FirstW@@YAHPEAXPEAU1@@Z$1?Process32NextW@@YAH01@Z@@IEAA_NXZ 000000018005a960     common-kernel64:MProcess.obj
 0004:0000096c       $pdata$?isTerminalMode@@YA_NXZ 000000018005a96c     common-kernel64:MProcess.obj
 0004:00000978       $pdata$?push_back@?$MArray@UtagPROCESSENTRY32W@@@@QEAA_JAEBUtagPROCESSENTRY32W@@@Z 000000018005a978     common-kernel64:MProcess.obj
 0004:00000984       $pdata$?Init@HkFunc@@QEAA_NPEB_WPEAUHINSTANCE__@@@Z 000000018005a984     common-kernel64:HkFunc.obj
 0004:00000990       $pdata$??0MSection@@QEAA@XZ 000000018005a990     common-kernel64:MSection.obj
 0004:0000099c       $pdata$??1MSection@@QEAA@XZ 000000018005a99c     common-kernel64:MSection.obj
 0004:000009a8       $pdata$??1MSectionLock@@QEAA@XZ 000000018005a9a8     common-kernel64:MSection.obj
 0004:000009b4       $pdata$?AddRef@MSection@@IEAAXK@Z 000000018005a9b4     common-kernel64:MSection.obj
 0004:000009c0       $pdata$?Lock@MSection@@IEAAHHK@Z 000000018005a9c0     common-kernel64:MSection.obj
 0004:000009cc       $pdata$?Lock@MSectionLock@@QEAAHPEAVMSection@@HK@Z 000000018005a9cc     common-kernel64:MSection.obj
 0004:000009d8       $pdata$?MyEnterCriticalSection@MSection@@IEAA_NK@Z 000000018005a9d8     common-kernel64:MSection.obj
 0004:000009e4       $pdata$?ReleaseRef@MSection@@IEAAHK@Z 000000018005a9e4     common-kernel64:MSection.obj
 0004:000009f0       $pdata$?Unlock@MSection@@IEAAXH@Z 000000018005a9f0     common-kernel64:MSection.obj
 0004:000009fc       $pdata$?Unlock@MSectionLock@@QEAAXXZ 000000018005a9fc     common-kernel64:MSection.obj
 0004:00000a08       $pdata$?WaitUnlocked@MSection@@IEAAXKK@Z 000000018005aa08     common-kernel64:MSection.obj
 0004:00000a14       $pdata$?SetThreadName@@YAXKPEAD@Z 000000018005aa14     common-kernel64:WThreads.obj
 0004:00000a20       $pdata$?apiCreateThread@@YAPEAXP6AKPEAX@Z0PEAKPEBDH@Z 000000018005aa20     common-kernel64:WThreads.obj
 0004:00000a2c       $pdata$?apiTerminateThreadEx@@YAHPEAXKPEBDH@Z 000000018005aa2c     common-kernel64:WThreads.obj
 0004:00000a38       $pdata$?apiThreadHelper@@YAKPEAX@Z 000000018005aa38     common-kernel64:WThreads.obj
 0004:00000a44       $pdata$?ExpandEnvStr@@YAPEA_WPEB_W@Z 000000018005aa44     common-kernel64:WObjects.obj
 0004:00000a50       $pdata$?FileExists@@YA_NPEB_WPEAK@Z 000000018005aa50     common-kernel64:WObjects.obj
 0004:00000a5c       $pdata$?GetEnvVar@@YAPEA_WPEB_W@Z 000000018005aa5c     common-kernel64:WObjects.obj
 0004:00000a68       $pdata$?StringCchCopyNW@@YAJPEA_W_KPEB_W1@Z 000000018005aa68     common-kernel64:WObjects.obj
 0004:00000a74       $pdata$?PointToExt@@YAPEB_WPEB_W@Z 000000018005aa74     common-kernel64:CmdLine.obj
 0004:00000a80       $pdata$?PointToName@@YAPEB_WPEB_W@Z 000000018005aa80     common-kernel64:CmdLine.obj
 0004:00000a8c       $pdata$?Unquote@@YAPEB_WPEA_W_N@Z 000000018005aa8c     common-kernel64:CmdLine.obj
 0004:00000a98       $pdata$?lstrdup@@YAPEA_WPEB_W_K@Z 000000018005aa98     common-kernel64:MStrDup.obj
 0004:00000aa4       $pdata$?lstrmerge@@YAPEA_WPEB_W00000000@Z 000000018005aaa4     common-kernel64:MStrDup.obj
 0004:00000ab0       $pdata$??0MSectionSimple@@QEAA@_N@Z 000000018005aab0     common-kernel64:MSectionSimple.obj
 0004:00000abc       $pdata$??1MSectionLockSimple@@QEAA@XZ 000000018005aabc     common-kernel64:MSectionSimple.obj
 0004:00000ac8       $pdata$?Close@MSectionSimple@@QEAAXXZ 000000018005aac8     common-kernel64:MSectionSimple.obj
 0004:00000ac8       $pdata$??1MSectionSimple@@QEAA@XZ 000000018005aac8     common-kernel64:MSectionSimple.obj
 0004:00000ad4       $pdata$?Init@MSectionSimple@@QEAAXXZ 000000018005aad4     common-kernel64:MSectionSimple.obj
 0004:00000ae0       $pdata$?Lock@MSectionLockSimple@@QEAAHPEAUMSectionSimple@@K@Z 000000018005aae0     common-kernel64:MSectionSimple.obj
 0004:00000aec       $pdata$?RecreateAndLock@MSectionSimple@@QEAA_NXZ 000000018005aaec     common-kernel64:MSectionSimple.obj
 0004:00000af8       $pdata$?TryEnter@MSectionSimple@@QEAA_NXZ 000000018005aaf8     common-kernel64:MSectionSimple.obj
 0004:00000b04       $pdata$?Unlock@MSectionLockSimple@@QEAAXXZ 000000018005ab04     common-kernel64:MSectionSimple.obj
 0004:00000b10       $pdata$??0CEStr@@QEAA@PEB_W00000000@Z 000000018005ab10     common-kernel64:CEStr.obj
 0004:00000b1c       $pdata$??1CEStr@@QEAA@XZ   000000018005ab1c     common-kernel64:CEStr.obj
 0004:00000b28       $pdata$?AttachInt@CEStr@@AEAAPEB_WAEAPEA_W@Z 000000018005ab28     common-kernel64:CEStr.obj
 0004:00000b34       $pdata$?GetBuffer@CEStr@@QEAAPEA_W_J@Z 000000018005ab34     common-kernel64:CEStr.obj
 0004:00000b40       $pdata$?GetMaxCount@CEStr@@QEAA_JXZ 000000018005ab40     common-kernel64:CEStr.obj
 0004:00000b4c       $pdata$?SavePathVar@CEStr@@QEAAXPEB_W@Z 000000018005ab4c     common-kernel64:CEStr.obj
 0004:00000b58       $pdata$?Set@CEStr@@QEAAPEB_WPEB_W_J@Z 000000018005ab58     common-kernel64:CEStr.obj
 0004:00000b64       $pdata$??0CRgnDetect@@QEAA@XZ 000000018005ab64     common-user64:RgnDetect.obj
 0004:00000b70       $pdata$??1CRgnDetect@@QEAA@XZ 000000018005ab70     common-user64:RgnDetect.obj
 0004:00000b7c       $pdata$?DetectDialog@CRgnDetect@@IEAA_NPEA_WPEAUtag_CharAttr@@HHHHPEAH2@Z 000000018005ab7c     common-user64:RgnDetect.obj
 0004:00000b88       $pdata$?ExpandDialogFrame@CRgnDetect@@IEAA_NPEA_WPEAUtag_CharAttr@@HHAEAH2HH22@Z 000000018005ab88     common-user64:RgnDetect.obj
 0004:00000b94       $pdata$?FindByBackground@CRgnDetect@@IEAA_NPEA_WPEAUtag_CharAttr@@HHAEAH222AEA_N@Z 000000018005ab94     common-user64:RgnDetect.obj
 0004:00000ba0       $pdata$?FindDialog_Any@CRgnDetect@@IEAA_NPEA_WPEAUtag_CharAttr@@HHAEAH222AEA_N@Z 000000018005aba0     common-user64:RgnDetect.obj
 0004:00000bac       $pdata$?FindDialog_Inner@CRgnDetect@@IEAA_NPEA_WPEAUtag_CharAttr@@HHAEAH2@Z 000000018005abac     common-user64:RgnDetect.obj
 0004:00000bb8       $pdata$?FindDialog_Left@CRgnDetect@@IEAA_NPEA_WPEAUtag_CharAttr@@HHAEAH222AEA_N@Z 000000018005abb8     common-user64:RgnDetect.obj
 0004:00000bc4       $pdata$?FindDialog_Right@CRgnDetect@@IEAA_NPEA_WPEAUtag_CharAttr@@HHAEAH222AEA_N@Z 000000018005abc4     common-user64:RgnDetect.obj
 0004:00000bd0       $pdata$?FindDialog_TopLeft@CRgnDetect@@IEAA_NPEA_WPEAUtag_CharAttr@@HHAEAH222AEA_N@Z 000000018005abd0     common-user64:RgnDetect.obj
 0004:00000bdc       $pdata$?FindDialog_TopRight@CRgnDetect@@IEAA_NPEA_WPEAUtag_CharAttr@@HHAEAH222AEA_N@Z 000000018005abdc     common-user64:RgnDetect.obj
 0004:00000be8       $pdata$?FindFrameBottom_ByLeft@CRgnDetect@@IEAA_NPEA_WPEAUtag_CharAttr@@HHAEAH22@Z 000000018005abe8     common-user64:RgnDetect.obj
 0004:00000bf4       $pdata$?FindFrameBottom_ByRight@CRgnDetect@@IEAA_NPEA_WPEAUtag_CharAttr@@HHAEAH22@Z 000000018005abf4     common-user64:RgnDetect.obj
 0004:00000c00       $pdata$?FindFrameLeft_ByBottom@CRgnDetect@@IEAA_NPEA_WPEAUtag_CharAttr@@HHAEAH22@Z 000000018005ac00     common-user64:RgnDetect.obj
 0004:00000c0c       $pdata$?FindFrameLeft_ByTop@CRgnDetect@@IEAA_NPEA_WPEAUtag_CharAttr@@HHAEAH22@Z 000000018005ac0c     common-user64:RgnDetect.obj
 0004:00000c18       $pdata$?FindFrameRight_ByBottom@CRgnDetect@@IEAA_NPEA_WPEAUtag_CharAttr@@HHAEAH22@Z 000000018005ac18     common-user64:RgnDetect.obj
 0004:00000c24       $pdata$?FindFrameRight_ByTop@CRgnDetect@@IEAA_NPEA_WPEAUtag_CharAttr@@HHAEAH22@Z 000000018005ac24     common-user64:RgnDetect.obj
 0004:00000c30       $pdata$?FindFrameTop_ByLeft@CRgnDetect@@IEAA_NPEA_WPEAUtag_CharAttr@@HHAEAH22@Z 000000018005ac30     common-user64:RgnDetect.obj
 0004:00000c3c       $pdata$?FindFrameTop_ByRight@CRgnDetect@@IEAA_NPEA_WPEAUtag_CharAttr@@HHAEAH22@Z 000000018005ac3c     common-user64:RgnDetect.obj
 0004:00000c48       $pdata$?FindFrame_TopLeft@CRgnDetect@@IEAA_NPEA_WPEAUtag_CharAttr@@HHAEAH222@Z 000000018005ac48     common-user64:RgnDetect.obj
 0004:00000c54       $pdata$?InitializeSBI@CRgnDetect@@QEAAHPEBK@Z 000000018005ac54     common-user64:RgnDetect.obj
 0004:00000c60       $pdata$?MarkDialog@CRgnDetect@@IEAAHPEA_WPEAUtag_CharAttr@@HHHHHHI_NK@Z 000000018005ac60     common-user64:RgnDetect.obj
 0004:00000c6c       $pdata$?OnWriteConsoleOutput@CRgnDetect@@QEAAXPEBU_CHAR_INFO@@U_COORD@@1PEAU_SMALL_RECT@@PEBK@Z 000000018005ac6c     common-user64:RgnDetect.obj
 0004:00000c78       $pdata$?PrepareTransparent@CRgnDetect@@QEAAXPEBUCEFAR_INFO_MAPPING@@PEBK@Z 000000018005ac78     common-user64:RgnDetect.obj
 0004:00000c84       $pdata$?PrepareTransparent@CRgnDetect@@QEAAXPEBUCEFAR_INFO_MAPPING@@PEBKPEBU_CONSOLE_SCREEN_BUFFER_INFO@@PEA_WPEAUtag_CharAttr@@HH@Z 000000018005ac84     common-user64:RgnDetect.obj
 0004:00000c90       $pdata$?SearchAppPaths@@YA_NPEB_WAEAUCEStr@@_NPEAU1@@Z 000000018005ac90     common-user64:WFiles.obj
 0004:00000c9c       $pdata$?apiShowWindow@@YA_NPEAUHWND__@@H@Z 000000018005ac9c     common-user64:WUser.obj
 0004:00000ca8       $pdata$__GSHandlerCheck    000000018005aca8     LIBCMT:_gshandler_.obj
 0004:00000cb4       $pdata$__GSHandlerCheckCommon 000000018005acb4     LIBCMT:_gshandler_.obj
 0004:00000cc0       $pdata$__GSHandlerCheck_EH 000000018005acc0     LIBCMT:gshandlereh.obj
 0004:00000cd8       $pdata$??_Gtype_info@@UEAAPEAXI@Z 000000018005acd8     LIBCMT:std_type_info_static.obj
 0004:00000ce4       $pdata$?dllmain_crt_dispatch@@YAHQEAUHINSTANCE__@@KQEAX@Z 000000018005ace4     LIBCMT:dll_dllmain.obj
 0004:00000cf0       $pdata$?dllmain_crt_process_attach@@YAHQEAUHINSTANCE__@@QEAX@Z 000000018005acf0     LIBCMT:dll_dllmain.obj
 0004:00000cfc       $pdata$?dllmain_crt_process_detach@@YAH_N@Z 000000018005acfc     LIBCMT:dll_dllmain.obj
 0004:00000d08       $pdata$?dllmain_dispatch@@YAHQEAUHINSTANCE__@@KQEAX@Z 000000018005ad08     LIBCMT:dll_dllmain.obj
 0004:00000d14       $pdata$?dllmain_raw@@YAHQEAUHINSTANCE__@@KQEAX@Z 000000018005ad14     LIBCMT:dll_dllmain.obj
 0004:00000d20       $pdata$_DllMainCRTStartup  000000018005ad20     LIBCMT:dll_dllmain.obj
 0004:00000d2c       $pdata$__raise_securityfailure 000000018005ad2c     LIBCMT:gs_report.obj
 0004:00000d38       $pdata$__report_gsfailure  000000018005ad38     LIBCMT:gs_report.obj
 0004:00000d44       $pdata$__report_rangecheckfailure 000000018005ad44     LIBCMT:gs_report.obj
 0004:00000d50       $pdata$__report_securityfailure 000000018005ad50     LIBCMT:gs_report.obj
 0004:00000d5c       $pdata$capture_current_context 000000018005ad5c     LIBCMT:gs_report.obj
 0004:00000d68       $pdata$capture_previous_context 000000018005ad68     LIBCMT:gs_report.obj
 0004:00000d74       $pdata$__security_init_cookie 000000018005ad74     LIBCMT:gs_support.obj
 0004:00000d80       $pdata$__scrt_initialize_default_local_stdio_options 000000018005ad80     LIBCMT:default_local_stdio_options.obj
 0004:00000d8c       $pdata$__scrt_acquire_startup_lock 000000018005ad8c     LIBCMT:utility.obj
 0004:00000d98       $pdata$__scrt_dllmain_after_initialize_c 000000018005ad98     LIBCMT:utility.obj
 0004:00000da4       $pdata$__scrt_dllmain_before_initialize_c 000000018005ada4     LIBCMT:utility.obj
 0004:00000db0       $pdata$__scrt_dllmain_crt_thread_attach 000000018005adb0     LIBCMT:utility.obj
 0004:00000dbc       $pdata$__scrt_dllmain_crt_thread_detach 000000018005adbc     LIBCMT:utility.obj
 0004:00000dc8       $pdata$__scrt_dllmain_exception_filter 000000018005adc8     LIBCMT:utility.obj
 0004:00000dd4       $pdata$__scrt_dllmain_uninitialize_c 000000018005add4     LIBCMT:utility.obj
 0004:00000de0       $pdata$__scrt_dllmain_uninitialize_critical 000000018005ade0     LIBCMT:utility.obj
 0004:00000dec       $pdata$__scrt_initialize_crt 000000018005adec     LIBCMT:utility.obj
 0004:00000df8       $pdata$__scrt_initialize_onexit_tables 000000018005adf8     LIBCMT:utility.obj
 0004:00000e04       $pdata$__scrt_is_nonwritable_in_current_image 000000018005ae04     LIBCMT:utility.obj
 0004:00000e10       $pdata$__scrt_release_startup_lock 000000018005ae10     LIBCMT:utility.obj
 0004:00000e1c       $pdata$__scrt_uninitialize_crt 000000018005ae1c     LIBCMT:utility.obj
 0004:00000e28       $pdata$__scrt_fastfail     000000018005ae28     LIBCMT:utility_desktop.obj
 0004:00000e34       $pdata$_RTC_Initialize     000000018005ae34     LIBCMT:_initsect_.obj
 0004:00000e40       $pdata$_RTC_Terminate      000000018005ae40     LIBCMT:_initsect_.obj
 0004:00000e4c       $pdata$__isa_available_init 000000018005ae4c     LIBCMT:_cpu_disp_.obj
 0004:00000e64       $pdata$?_ExecutionInCatch@@YAHPEAU_xDISPATCHER_CONTEXT@@PEBU_s_FuncInfo@@@Z 000000018005ae64     libvcruntime:risctrnsctrl.obj
 0004:00000e70       $pdata$?_GetEstablisherFrame@@YAPEA_KPEA_KPEAU_xDISPATCHER_CONTEXT@@PEBU_s_FuncInfo@@0@Z 000000018005ae70     libvcruntime:risctrnsctrl.obj
 0004:00000e7c       $pdata$?_GetRangeOfTrysToCheck@@YAPEBU_s_TryBlockMapEntry@@PEA_KPEBU_s_FuncInfo@@HHPEAI2PEAU_xDISPATCHER_CONTEXT@@@Z 000000018005ae7c     libvcruntime:risctrnsctrl.obj
 0004:00000e88       $pdata$?__FrameUnwindToEmptyState@@YAXPEA_KPEAU_xDISPATCHER_CONTEXT@@PEBU_s_FuncInfo@@@Z 000000018005ae88     libvcruntime:risctrnsctrl.obj
 0004:00000e94       $pdata$_CallSETranslator   000000018005ae94     libvcruntime:risctrnsctrl.obj
 0004:00000ea0       $pdata$_CreateFrameInfo    000000018005aea0     libvcruntime:risctrnsctrl.obj
 0004:00000eac       $pdata$_FindAndUnlinkFrame 000000018005aeac     libvcruntime:risctrnsctrl.obj
 0004:00000eb8       $pdata$_GetImageBase       000000018005aeb8     libvcruntime:risctrnsctrl.obj
 0004:00000ec4       $pdata$_GetThrowImageBase  000000018005aec4     libvcruntime:risctrnsctrl.obj
 0004:00000ed0       $pdata$_SetImageBase       000000018005aed0     libvcruntime:risctrnsctrl.obj
 0004:00000edc       $pdata$_SetThrowImageBase  000000018005aedc     libvcruntime:risctrnsctrl.obj
 0004:00000ee8       $pdata$_UnwindNestedFrames 000000018005aee8     libvcruntime:risctrnsctrl.obj
 0004:00000ef4       $pdata$__CxxFrameHandler3  000000018005aef4     libvcruntime:risctrnsctrl.obj
 0004:00000f18       $pdata$wcschr              000000018005af18     libvcruntime:wcschr.obj
 0004:00000f24       $pdata$__C_specific_handler 000000018005af24     libvcruntime:_riscchandler_.obj
 0004:00000f30       $pdata$strrchr             000000018005af30     libvcruntime:strrchr.obj
 0004:00000f3c       $pdata$strchr              000000018005af3c     libvcruntime:strchr.obj
 0004:00000f54       $pdata$__std_type_info_destroy_list 000000018005af54     libvcruntime:std_type_info.obj
 0004:00000f60       $pdata$__vcrt_initialize   000000018005af60     libvcruntime:initialization.obj
 0004:00000f6c       $pdata$__vcrt_thread_attach 000000018005af6c     libvcruntime:initialization.obj
 0004:00000f78       $pdata$__vcrt_thread_detach 000000018005af78     libvcruntime:initialization.obj
 0004:00000f84       $pdata$__vcrt_uninitialize 000000018005af84     libvcruntime:initialization.obj
 0004:00000f90       $pdata$__vcrt_uninitialize_critical 000000018005af90     libvcruntime:initialization.obj
 0004:00000f9c       $pdata$__vcrt_freefls      000000018005af9c     libvcruntime:per_thread_data.obj
 0004:00000fa8       $pdata$__vcrt_freeptd      000000018005afa8     libvcruntime:per_thread_data.obj
 0004:00000fb4       $pdata$__vcrt_getptd       000000018005afb4     libvcruntime:per_thread_data.obj
 0004:00000fc0       $pdata$__vcrt_getptd_noexit 000000018005afc0     libvcruntime:per_thread_data.obj
 0004:00000fcc       $pdata$__vcrt_initialize_ptd 000000018005afcc     libvcruntime:per_thread_data.obj
 0004:00000fd8       $pdata$__vcrt_uninitialize_ptd 000000018005afd8     libvcruntime:per_thread_data.obj
 0004:00000fe4       $pdata$?__GetCurrentState@@YAHPEA_KPEAU_xDISPATCHER_CONTEXT@@PEBU_s_FuncInfo@@@Z 000000018005afe4     libvcruntime:riscehstate.obj
 0004:00000ff0       $pdata$?__GetUnwindTryBlock@@YAHPEA_KPEAU_xDISPATCHER_CONTEXT@@PEBU_s_FuncInfo@@@Z 000000018005aff0     libvcruntime:riscehstate.obj
 0004:00000ffc       $pdata$?__SetUnwindTryBlock@@YAXPEA_KPEAU_xDISPATCHER_CONTEXT@@PEBU_s_FuncInfo@@H@Z 000000018005affc     libvcruntime:riscehstate.obj
 0004:00001008       $pdata$?__StateFromIp@@YAHPEBU_s_FuncInfo@@PEAU_xDISPATCHER_CONTEXT@@_K@Z 000000018005b008     libvcruntime:riscehstate.obj
 0004:00001014       $pdata$??0bad_exception@std@@QEAA@AEBV01@@Z 000000018005b014     libvcruntime:frame.obj
 0004:00001020       $pdata$??0exception@std@@QEAA@AEBV01@@Z 000000018005b020     libvcruntime:frame.obj
 0004:0000102c       $pdata$??_Gbad_exception@std@@UEAAPEAXI@Z 000000018005b02c     libvcruntime:frame.obj
 0004:0000102c       $pdata$??_Gexception@std@@UEAAPEAXI@Z 000000018005b02c     libvcruntime:frame.obj
 0004:00001038       $pdata$?CatchIt@@YAXPEAUEHExceptionRecord@@PEA_KPEAU_CONTEXT@@PEAU_xDISPATCHER_CONTEXT@@PEBU_s_FuncInfo@@PEBU_s_HandlerType@@PEBU_s_CatchableType@@PEBU_s_TryBlockMapEntry@@H1EE@Z 000000018005b038     libvcruntime:frame.obj
 0004:00001044       $pdata$?ExFilterRethrow@@YAHPEAU_EXCEPTION_POINTERS@@PEAUEHExceptionRecord@@PEAH@Z 000000018005b044     libvcruntime:frame.obj
 0004:00001050       $pdata$?FindHandler@@YAXPEAUEHExceptionRecord@@PEA_KPEAU_CONTEXT@@PEAU_xDISPATCHER_CONTEXT@@PEBU_s_FuncInfo@@EH1@Z 000000018005b050     libvcruntime:frame.obj
 0004:0000105c       $pdata$?FindHandlerForForeignException@@YAXPEAUEHExceptionRecord@@PEA_KPEAU_CONTEXT@@PEAU_xDISPATCHER_CONTEXT@@PEBU_s_FuncInfo@@HH1@Z 000000018005b05c     libvcruntime:frame.obj
 0004:00001068       $pdata$?IsInExceptionSpec@@YAEPEAUEHExceptionRecord@@PEBU_s_ESTypeList@@@Z 000000018005b068     libvcruntime:frame.obj
 0004:00001074       $pdata$__BuildCatchObject  000000018005b074     libvcruntime:frame.obj
 0004:00001080       $pdata$__BuildCatchObjectHelper 000000018005b080     libvcruntime:frame.obj
 0004:0000108c       $pdata$__CxxCallCatchBlock 000000018005b08c     libvcruntime:frame.obj
 0004:00001098       $pdata$__FrameUnwindToState 000000018005b098     libvcruntime:frame.obj
 0004:000010a4       $pdata$__InternalCxxFrameHandler 000000018005b0a4     libvcruntime:frame.obj
 0004:000010b0       $pdata$__TypeMatch         000000018005b0b0     libvcruntime:frame.obj
 0004:000010ec       $pdata$__vcrt_initialize_locks 000000018005b0ec     libvcruntime:locks.obj
 0004:000010f8       $pdata$__vcrt_uninitialize_locks 000000018005b0f8     libvcruntime:locks.obj
 0004:00001104       $pdata$?try_get_function@@YAPEAXW4function_id@?A0x2db55455@@QEBDQEBW4module_id@2@2@Z 000000018005b104     libvcruntime:winapi_downlevel.obj
 0004:00001110       $pdata$__vcrt_FlsAlloc     000000018005b110     libvcruntime:winapi_downlevel.obj
 0004:0000111c       $pdata$__vcrt_FlsFree      000000018005b11c     libvcruntime:winapi_downlevel.obj
 0004:00001128       $pdata$__vcrt_FlsGetValue  000000018005b128     libvcruntime:winapi_downlevel.obj
 0004:00001134       $pdata$__vcrt_FlsSetValue  000000018005b134     libvcruntime:winapi_downlevel.obj
 0004:00001140       $pdata$__vcrt_InitializeCriticalSectionEx 000000018005b140     libvcruntime:winapi_downlevel.obj
 0004:0000114c       $pdata$__vcrt_initialize_winapi_thunks 000000018005b14c     libvcruntime:winapi_downlevel.obj
 0004:00001158       $pdata$__vcrt_uninitialize_winapi_thunks 000000018005b158     libvcruntime:winapi_downlevel.obj
 0004:00001170       $pdata$__DestructExceptionObject 000000018005b170     libvcruntime:ehhelpers.obj
 0004:0000117c       $pdata$_IsExceptionObjectToBeDestroyed 000000018005b17c     libvcruntime:ehhelpers.obj
 0004:00001188       $pdata$__FrameUnwindFilter 000000018005b188     libvcruntime:ehhelpers.obj
 0004:00001194       $pdata$__std_exception_copy 000000018005b194     libvcruntime:std_exception.obj
 0004:000011a0       $pdata$__std_exception_destroy 000000018005b1a0     libvcruntime:std_exception.obj
 0004:000011ac       $pdata$_CxxThrowException  000000018005b1ac     libvcruntime:throw.obj
 0004:000011b8       $pdata$??0_LocaleUpdate@@QEAA@QEAU__crt_locale_pointers@@@Z 000000018005b1b8     libucrt:strtox.obj
 0004:000011c4       $pdata$_initterm           000000018005b1c4     libucrt:initterm.obj
 0004:000011d0       $pdata$_initterm_e         000000018005b1d0     libucrt:initterm.obj
 0004:000011dc       $pdata$_seh_filter_exe     000000018005b1dc     libucrt:exception_filter.obj
 0004:000011e8       $pdata$?common_exit@@YAXHW4_crt_exit_cleanup_mode@@W4_crt_exit_return_mode@@@Z 000000018005b1e8     libucrt:exit.obj
 0004:000011f4       $pdata$?exit_or_terminate_process@@YAXI@Z 000000018005b1f4     libucrt:exit.obj
 0004:00001200       $pdata$?try_cor_exit_process@@YAXI@Z 000000018005b200     libucrt:exit.obj
 0004:0000120c       $pdata$??$parse_command_line@D@@YAXPEADPEAPEAD0PEA_K2@Z 000000018005b20c     libucrt:argv_parsing.obj
 0004:00001218       $pdata$__acrt_allocate_buffer_for_argv 000000018005b218     libucrt:argv_parsing.obj
 0004:00001224       $pdata$_configure_narrow_argv 000000018005b224     libucrt:argv_parsing.obj
 0004:00001230       $pdata$??$common_initialize_environment_nolock@D@@YAHXZ 000000018005b230     libucrt:environment_initialization.obj
 0004:0000123c       $pdata$??$create_environment@D@@YAQEAPEADQEAD@Z 000000018005b23c     libucrt:environment_initialization.obj
 0004:00001248       $pdata$??$free_environment@_W@@YAXQEAPEA_W@Z 000000018005b248     libucrt:environment_initialization.obj
 0004:00001248       $pdata$??$free_environment@D@@YAXQEAPEAD@Z 000000018005b248     libucrt:environment_initialization.obj
 0004:00001254       $pdata$??$uninitialize_environment_internal@D@@YAXAEAPEAPEAD@Z 000000018005b254     libucrt:environment_initialization.obj
 0004:00001260       $pdata$??$uninitialize_environment_internal@_W@@YAXAEAPEAPEA_W@Z 000000018005b260     libucrt:environment_initialization.obj
 0004:0000126c       $pdata$__dcrt_uninitialize_environments_nolock 000000018005b26c     libucrt:environment_initialization.obj
 0004:00001278       $pdata$??$?RV<lambda_e24bbb7b643b32fcea6fa61b31d4c984>@@AEAV<lambda_275893d493268fdec8709772e3fcec0e>@@V<lambda_9d71df4d7cf3f480f8d633942495c3b0>@@@?$__crt_seh_guarded_call@H@@QEAAH$$QEAV<lambda_e24bbb7b643b32fcea6fa61b31d4c984>@@AEAV<lambda_275893d493268fdec8709772e3fcec0e>@@$$QEAV<lambda_9d71df4d7cf3f480f8d633942495c3b0>@@@Z 000000018005b278     libucrt:onexit.obj
 0004:00001284       $pdata$_execute_onexit_table 000000018005b284     libucrt:onexit.obj
 0004:00001290       $pdata$initialize_c        000000018005b290     libucrt:initialization.obj
 0004:0000129c       $pdata$uninitialize_environment 000000018005b29c     libucrt:initialization.obj
 0004:000012a8       $pdata$initialize_pointers 000000018005b2a8     libucrt:initialization.obj
 0004:000012b4       $pdata$uninitialize_allocated_memory 000000018005b2b4     libucrt:initialization.obj
 0004:000012c0       $pdata$__acrt_thread_attach 000000018005b2c0     libucrt:initialization.obj
 0004:000012cc       $pdata$__acrt_thread_detach 000000018005b2cc     libucrt:initialization.obj
 0004:000012d8       $pdata$__acrt_uninitialize_critical 000000018005b2d8     libucrt:initialization.obj
 0004:000012e4       $pdata$terminate           000000018005b2e4     libucrt:terminate.obj
 0004:000012f0       $pdata$_free_base          000000018005b2f0     libucrt:free_base.obj
 0004:000012fc       $pdata$_malloc_base        000000018005b2fc     libucrt:malloc_base.obj
 0004:00001308       $pdata$strcpy_s            000000018005b308     libucrt:strcpy_s.obj
 0004:00001314       $pdata$abort               000000018005b314     libucrt:abort.obj
 0004:00001320       $pdata$_calloc_base        000000018005b320     libucrt:calloc_base.obj
 0004:0000132c       $pdata$__acrt_call_reportfault 000000018005b32c     libucrt:invalid_parameter.obj
 0004:00001338       $pdata$_invalid_parameter  000000018005b338     libucrt:invalid_parameter.obj
 0004:00001344       $pdata$_invalid_parameter_noinfo 000000018005b344     libucrt:invalid_parameter.obj
 0004:00001350       $pdata$_invoke_watson      000000018005b350     libucrt:invalid_parameter.obj
 0004:0000135c       $pdata$__acrt_errno_map_os_error 000000018005b35c     libucrt:errno.obj
 0004:00001368       $pdata$__doserrno          000000018005b368     libucrt:errno.obj
 0004:00001374       $pdata$_errno              000000018005b374     libucrt:errno.obj
 0004:00001380       $pdata$__pctype_func       000000018005b380     libucrt:ctype.obj
 0004:0000138c       $pdata$??$?RV<lambda_46352004c1216016012b18bd6f87e700>@@AEAV<lambda_3bd07e1a1191394380780325891bf33f>@@V<lambda_334532d3f185bcaa59b5be82d7d22bff>@@@?$__crt_seh_guarded_call@X@@QEAAX$$QEAV<lambda_46352004c1216016012b18bd6f87e700>@@AEAV<lambda_3bd07e1a1191394380780325891bf33f>@@$$QEAV<lambda_334532d3f185bcaa59b5be82d7d22bff>@@@Z 000000018005b38c     libucrt:per_thread_data.obj
 0004:00001398       $pdata$??$?RV<lambda_5e887d1dcbef67a5eb4283622ba103bf>@@AEAV<lambda_4466841279450cc726390878d4a41900>@@V<lambda_341c25c0346d94847f1f3c463c57e077>@@@?$__crt_seh_guarded_call@X@@QEAAX$$QEAV<lambda_5e887d1dcbef67a5eb4283622ba103bf>@@AEAV<lambda_4466841279450cc726390878d4a41900>@@$$QEAV<lambda_341c25c0346d94847f1f3c463c57e077>@@@Z 000000018005b398     libucrt:per_thread_data.obj
 0004:000013a4       $pdata$??$?RV<lambda_72d1df2b273a38828b1ce30cbf4cdab5>@@AEAV<lambda_876a65b173b8412d3a47c70a915b0cf4>@@V<lambda_41932305e351933ebe8f8be3ed8bb5dc>@@@?$__crt_seh_guarded_call@X@@QEAAX$$QEAV<lambda_72d1df2b273a38828b1ce30cbf4cdab5>@@AEAV<lambda_876a65b173b8412d3a47c70a915b0cf4>@@$$QEAV<lambda_41932305e351933ebe8f8be3ed8bb5dc>@@@Z 000000018005b3a4     libucrt:per_thread_data.obj
 0004:000013b0       $pdata$??$?RV<lambda_fb3a7dec4e47f37f22dae91bb15c9095>@@AEAV<lambda_698284760c8add0bfb0756c19673e34b>@@V<lambda_dfb8eca1e75fef3034a8fb18dd509707>@@@?$__crt_seh_guarded_call@X@@QEAAX$$QEAV<lambda_fb3a7dec4e47f37f22dae91bb15c9095>@@AEAV<lambda_698284760c8add0bfb0756c19673e34b>@@$$QEAV<lambda_dfb8eca1e75fef3034a8fb18dd509707>@@@Z 000000018005b3b0     libucrt:per_thread_data.obj
 0004:000013bc       $pdata$?construct_ptd_array@@YAXQEAU__acrt_ptd@@@Z 000000018005b3bc     libucrt:per_thread_data.obj
 0004:000013c8       $pdata$?destroy_fls@@YAXPEAX@Z 000000018005b3c8     libucrt:per_thread_data.obj
 0004:000013d4       $pdata$?destroy_ptd_array@@YAXQEAU__acrt_ptd@@@Z 000000018005b3d4     libucrt:per_thread_data.obj
 0004:000013e0       $pdata$?replace_current_thread_locale_nolock@@YAXQEAU__acrt_ptd@@QEAU__crt_locale_data@@@Z 000000018005b3e0     libucrt:per_thread_data.obj
 0004:000013ec       $pdata$__acrt_freeptd      000000018005b3ec     libucrt:per_thread_data.obj
 0004:000013f8       $pdata$__acrt_getptd       000000018005b3f8     libucrt:per_thread_data.obj
 0004:00001404       $pdata$__acrt_getptd_noexit 000000018005b404     libucrt:per_thread_data.obj
 0004:00001410       $pdata$__acrt_initialize_ptd 000000018005b410     libucrt:per_thread_data.obj
 0004:0000141c       $pdata$__acrt_uninitialize_ptd 000000018005b41c     libucrt:per_thread_data.obj
 0004:00001428       $pdata$__acrt_update_locale_info 000000018005b428     libucrt:locale_update.obj
 0004:00001434       $pdata$__acrt_update_multibyte_info 000000018005b434     libucrt:locale_update.obj
 0004:00001440       $pdata$__acrt_uninitialize_locale 000000018005b440     libucrt:wsetlocale.obj
 0004:0000144c       $pdata$__acrt_initialize_locks 000000018005b44c     libucrt:locks.obj
 0004:00001458       $pdata$__acrt_uninitialize_locks 000000018005b458     libucrt:locks.obj
 0004:00001464       $pdata$?try_get_function@@YAPEAXW4function_id@?A0x63058377@@QEBDQEBW4module_id@2@2@Z 000000018005b464     libucrt:winapi_thunks.obj
 0004:00001470       $pdata$__acrt_FlsAlloc     000000018005b470     libucrt:winapi_thunks.obj
 0004:0000147c       $pdata$__acrt_FlsFree      000000018005b47c     libucrt:winapi_thunks.obj
 0004:00001488       $pdata$__acrt_FlsGetValue  000000018005b488     libucrt:winapi_thunks.obj
 0004:00001494       $pdata$__acrt_FlsSetValue  000000018005b494     libucrt:winapi_thunks.obj
 0004:000014a0       $pdata$__acrt_InitializeCriticalSectionEx 000000018005b4a0     libucrt:winapi_thunks.obj
 0004:000014ac       $pdata$__acrt_LCMapStringEx 000000018005b4ac     libucrt:winapi_thunks.obj
 0004:000014b8       $pdata$__acrt_LocaleNameToLCID 000000018005b4b8     libucrt:winapi_thunks.obj
 0004:000014c4       $pdata$__acrt_initialize_winapi_thunks 000000018005b4c4     libucrt:winapi_thunks.obj
 0004:000014d0       $pdata$__acrt_is_packaged_app 000000018005b4d0     libucrt:winapi_thunks.obj
 0004:000014dc       $pdata$__acrt_uninitialize_winapi_thunks 000000018005b4dc     libucrt:winapi_thunks.obj
 0004:000014e8       $pdata$??$common_expand_argv_wildcards@D@@YAHQEAPEADQEAPEAPEAD@Z 000000018005b4e8     libucrt:argv_wildcards.obj
 0004:000014f4       $pdata$??$copy_and_add_argument_to_buffer@D@@YAHQEBD0_KAEAV?$argument_list@D@?A0xca0879c4@@@Z 000000018005b4f4     libucrt:argv_wildcards.obj
 0004:00001500       $pdata$??$expand_argument_wildcards@D@@YAHQEAD0AEAV?$argument_list@D@?A0xca0879c4@@@Z 000000018005b500     libucrt:argv_wildcards.obj
 0004:0000150c       $pdata$?expand_if_necessary@?$argument_list@D@?A0xca0879c4@@AEAAHXZ 000000018005b50c     libucrt:argv_wildcards.obj
 0004:00001518       $pdata$??$?RV<lambda_99476a1ad63dd22509b5d3e65b0ffc95>@@AEAV<lambda_ad1ced32f4ac17aa236e5ef05d6b3b7c>@@V<lambda_f7424dd8d45958661754dc4f2697e9c3>@@@?$__crt_seh_guarded_call@X@@QEAAX$$QEAV<lambda_99476a1ad63dd22509b5d3e65b0ffc95>@@AEAV<lambda_ad1ced32f4ac17aa236e5ef05d6b3b7c>@@$$QEAV<lambda_f7424dd8d45958661754dc4f2697e9c3>@@@Z 000000018005b518     libucrt:mbctype.obj
 0004:00001524       $pdata$??R<lambda_ad1ced32f4ac17aa236e5ef05d6b3b7c>@@QEBAXXZ 000000018005b524     libucrt:mbctype.obj
 0004:00001530       $pdata$?getSystemCP@@YAHH@Z 000000018005b530     libucrt:mbctype.obj
 0004:0000153c       $pdata$?setSBCS@@YAXPEAU__crt_multibyte_data@@@Z 000000018005b53c     libucrt:mbctype.obj
 0004:00001548       $pdata$?setSBUpLow@@YAXPEAU__crt_multibyte_data@@@Z 000000018005b548     libucrt:mbctype.obj
 0004:00001554       $pdata$?setmbcp_internal@@YAHH_N@Z 000000018005b554     libucrt:mbctype.obj
 0004:00001560       $pdata$__acrt_initialize_multibyte 000000018005b560     libucrt:mbctype.obj
 0004:0000156c       $pdata$__acrt_update_thread_multibyte_data 000000018005b56c     libucrt:mbctype.obj
 0004:00001578       $pdata$_setmbcp_nolock     000000018005b578     libucrt:mbctype.obj
 0004:00001584       $pdata$?x_ismbbtype_l@@YAHPEAU__crt_locale_pointers@@IHH@Z 000000018005b584     libucrt:ismbbyte.obj
 0004:00001590       $pdata$__acrt_initialize_command_line 000000018005b590     libucrt:argv_data.obj
 0004:0000159c       $pdata$__dcrt_get_narrow_environment_from_os 000000018005b59c     libucrt:get_environment_from_os.obj
 0004:000015a8       $pdata$_recalloc_base      000000018005b5a8     libucrt:recalloc.obj
 0004:000015b4       $pdata$__acrt_initialize_heap 000000018005b5b4     libucrt:heap_handle.obj
 0004:000015c0       $pdata$?initialize_inherited_file_handles_nolock@@YAXXZ 000000018005b5c0     libucrt:ioinit.obj
 0004:000015cc       $pdata$?initialize_stdio_handles_nolock@@YAXXZ 000000018005b5cc     libucrt:ioinit.obj
 0004:000015d8       $pdata$__acrt_initialize_lowio 000000018005b5d8     libucrt:ioinit.obj
 0004:000015e4       $pdata$__acrt_uninitialize_lowio 000000018005b5e4     libucrt:ioinit.obj
 0004:000015f0       $pdata$__acrt_execute_initializers 000000018005b5f0     libucrt:shared_initialization.obj
 0004:000015fc       $pdata$__acrt_execute_uninitializers 000000018005b5fc     libucrt:shared_initialization.obj
 0004:00001608       $pdata$_callnewh           000000018005b608     libucrt:new_handler.obj
 0004:00001614       $pdata$_query_new_handler  000000018005b614     libucrt:new_handler.obj
 0004:00001620       $pdata$??$?RV<lambda_c36588078e9f5dfd39652860aa6b3aaf>@@AEAV<lambda_ec61778202f4f5fc7e7711acc23c3bca>@@V<lambda_dc9d2797ccde5d239b4a0efae8ebd7db>@@@?$__crt_seh_guarded_call@P6AXH@Z@@QEAAP6AXH@Z$$QEAV<lambda_c36588078e9f5dfd39652860aa6b3aaf>@@AEAV<lambda_ec61778202f4f5fc7e7711acc23c3bca>@@$$QEAV<lambda_dc9d2797ccde5d239b4a0efae8ebd7db>@@@Z 000000018005b620     libucrt:signal.obj
 0004:0000162c       $pdata$__acrt_get_sigabrt_handler 000000018005b62c     libucrt:signal.obj
 0004:00001638       $pdata$raise               000000018005b638     libucrt:signal.obj
 0004:00001644       $pdata$__acrt_invoke_user_matherr 000000018005b644     libucrt:matherr.obj
 0004:00001650       $pdata$_mbtowc_l           000000018005b650     libucrt:mbtowc.obj
 0004:0000165c       $pdata$_fileno             000000018005b65c     libucrt:fileno.obj
 0004:00001668       $pdata$__acrt_initialize_stdio 000000018005b668     libucrt:_file.obj
 0004:00001674       $pdata$__acrt_uninitialize_stdio 000000018005b674     libucrt:_file.obj
 0004:00001680       $pdata$_isleadbyte_l       000000018005b680     libucrt:_wctype.obj
 0004:0000168c       $pdata$__acrt_GetStringTypeA 000000018005b68c     libucrt:getstringtypea.obj
 0004:00001698       $pdata$__acrt_free_locale  000000018005b698     libucrt:locale_refcounting.obj
 0004:000016a4       $pdata$__acrt_locale_free_lc_time_if_unreferenced 000000018005b6a4     libucrt:locale_refcounting.obj
 0004:000016b0       $pdata$__acrt_release_locale_ref 000000018005b6b0     libucrt:locale_refcounting.obj
 0004:000016bc       $pdata$__acrt_update_thread_locale_data 000000018005b6bc     libucrt:locale_refcounting.obj
 0004:000016c8       $pdata$_updatetlocinfoEx_nolock 000000018005b6c8     libucrt:locale_refcounting.obj
 0004:000016d4       $pdata$__acrt_locale_free_monetary 000000018005b6d4     libucrt:initmon.obj
 0004:000016e0       $pdata$__acrt_locale_free_numeric 000000018005b6e0     libucrt:initnum.obj
 0004:000016ec       $pdata$?free_crt_array_internal@@YAXQEAPEBX_K@Z 000000018005b6ec     libucrt:inittime.obj
 0004:000016f8       $pdata$__acrt_locale_free_time 000000018005b6f8     libucrt:inittime.obj
 0004:00001704       $pdata$?GetTableIndexFromLocaleName@@YAHPEB_W@Z 000000018005b704     libucrt:lcidtoname_downlevel.obj
 0004:00001710       $pdata$__acrt_DownlevelLocaleNameToLCID 000000018005b710     libucrt:lcidtoname_downlevel.obj
 0004:0000171c       $pdata$?shortsort@@YAXPEAD0_KP6AHPEBX2@Z@Z 000000018005b71c     libucrt:qsort.obj
 0004:00001728       $pdata$2$?shortsort@@YAXPEAD0_KP6AHPEBX2@Z@Z 000000018005b728     libucrt:qsort.obj
 0004:00001734       $pdata$3$?shortsort@@YAXPEAD0_KP6AHPEBX2@Z@Z 000000018005b734     libucrt:qsort.obj
 0004:00001740       $pdata$qsort               000000018005b740     libucrt:qsort.obj
 0004:0000174c       $pdata$4$qsort             000000018005b74c     libucrt:qsort.obj
 0004:00001758       $pdata$5$qsort             000000018005b758     libucrt:qsort.obj
 0004:00001764       $pdata$strncpy_s           000000018005b764     libucrt:strncpy_s.obj
 0004:00001770       $pdata$strpbrk             000000018005b770     libucrt:strpbrk.obj
 0004:0000177c       $pdata$_mbsdec_l           000000018005b77c     libucrt:mbsdec.obj
 0004:00001788       $pdata$?initialize_multibyte@@YAHXZ 000000018005b788     libucrt:multibyte_initializer.obj
 0004:00001794       $pdata$?__acrt_LCMapStringA_stat@@YAHPEAU__crt_locale_pointers@@PEB_WKPEBDHPEADHHH@Z 000000018005b794     libucrt:lcmapstringa.obj
 0004:000017a0       $pdata$__acrt_LCMapStringA 000000018005b7a0     libucrt:lcmapstringa.obj
 0004:000017ac       $pdata$_msize              000000018005b7ac     libucrt:msize.obj
 0004:000017b8       $pdata$_realloc_base       000000018005b7b8     libucrt:realloc_base.obj
 0004:000017c4       $pdata$__acrt_lowio_create_handle_array 000000018005b7c4     libucrt:osfinfo.obj
 0004:000017d0       $pdata$__acrt_lowio_destroy_handle_array 000000018005b7d0     libucrt:osfinfo.obj
 0004:000017dc       $pdata$__acrt_lowio_ensure_fh_exists 000000018005b7dc     libucrt:osfinfo.obj
 0004:000017e8       $pdata$_free_osfhnd        000000018005b7e8     libucrt:osfinfo.obj
 0004:000017f4       $pdata$_get_osfhandle      000000018005b7f4     libucrt:osfinfo.obj
 0004:00001800       $pdata$_isatty             000000018005b800     libucrt:isatty.obj
 0004:0000180c       $pdata$__acrt_stdio_flush_nolock 000000018005b80c     libucrt:fflush.obj
 0004:00001818       $pdata$_fflush_nolock      000000018005b818     libucrt:fflush.obj
 0004:00001824       $pdata$common_flush_all    000000018005b824     libucrt:fflush.obj
 0004:00001830       $pdata$_fcloseall          000000018005b830     libucrt:closeall.obj
 0004:0000183c       $pdata$__acrt_stdio_free_buffer_nolock 000000018005b83c     libucrt:_freebuf.obj
 0004:00001848       $pdata$??$?RV<lambda_b521505b218e5242e90febf6bfebc422>@@AEAV<lambda_6978c1fb23f02e42e1d9e99668cc68aa>@@V<lambda_314360699dd331753a4119843814e9a7>@@@?$__crt_seh_guarded_call@H@@QEAAH$$QEAV<lambda_b521505b218e5242e90febf6bfebc422>@@AEAV<lambda_6978c1fb23f02e42e1d9e99668cc68aa>@@$$QEAV<lambda_314360699dd331753a4119843814e9a7>@@@Z 000000018005b848     libucrt:commit.obj
 0004:00001854       $pdata$_commit             000000018005b854     libucrt:commit.obj
 0004:00001860       $pdata$?write_double_translated_ansi_nolock@@YA?AUwrite_result@?A0x9c548279@@HQEBDI@Z 000000018005b860     libucrt:write.obj
 0004:0000186c       $pdata$?write_text_ansi_nolock@@YA?AUwrite_result@?A0x9c548279@@HQEBDI@Z 000000018005b86c     libucrt:write.obj
 0004:00001878       $pdata$?write_text_utf16le_nolock@@YA?AUwrite_result@?A0x9c548279@@HQEBDI@Z 000000018005b878     libucrt:write.obj
 0004:00001884       $pdata$?write_text_utf8_nolock@@YA?AUwrite_result@?A0x9c548279@@HQEBDI@Z 000000018005b884     libucrt:write.obj
 0004:00001890       $pdata$_write              000000018005b890     libucrt:write.obj
 0004:0000189c       $pdata$_write_nolock       000000018005b89c     libucrt:write.obj
 0004:000018b4       $pdata$??$common_lseek_nolock@_J@@YA_JH_JH@Z 000000018005b8b4     libucrt:lseek.obj
 0004:000018c0       $pdata$_fclose_nolock      000000018005b8c0     libucrt:fclose.obj
 0004:000018cc       $pdata$fclose              000000018005b8cc     libucrt:fclose.obj
 0004:000018d8       $pdata$_putwch_nolock      000000018005b8d8     libucrt:putwch.obj
 0004:000018e4       $pdata$_call_matherr       000000018005b8e4     libucrt:libm_error.obj
 0004:000018f0       $pdata$_exception_enabled  000000018005b8f0     libucrt:libm_error.obj
 0004:000018fc       $pdata$_handle_error       000000018005b8fc     libucrt:libm_error.obj
 0004:00001908       $pdata$__acrt_initialize_fma3 000000018005b908     libucrt:fma3_available.obj
 0004:00001914       $pdata$_log10_special      000000018005b914     libucrt:log_special.obj
 0004:00001920       $pdata$_log_special_common 000000018005b920     libucrt:log_special.obj
 0004:0000192c       $pdata$??$?RV<lambda_bfedae4ebbf01fab1bb6dcc6a9e276e0>@@AEAV<lambda_2fe9b910cf3cbf4a0ab98a02ba45b3ec>@@V<lambda_237c231691f317818eb88cc1d5d642d6>@@@?$__crt_seh_guarded_call@H@@QEAAH$$QEAV<lambda_bfedae4ebbf01fab1bb6dcc6a9e276e0>@@AEAV<lambda_2fe9b910cf3cbf4a0ab98a02ba45b3ec>@@$$QEAV<lambda_237c231691f317818eb88cc1d5d642d6>@@@Z 000000018005b92c     libucrt:close.obj
 0004:00001938       $pdata$_close              000000018005b938     libucrt:close.obj
 0004:00001944       $pdata$_close_nolock       000000018005b944     libucrt:close.obj
 0004:00001950       $pdata$__dcrt_lowio_initialize_console_output 000000018005b950     libucrt:initcon.obj
 0004:0000195c       $pdata$__dcrt_terminate_console_output 000000018005b95c     libucrt:initcon.obj
 0004:00001974       $pdata$_raise_exc          000000018005b974     libucrt:fpexcept.obj
 0004:00001980       $pdata$_raise_exc_ex       000000018005b980     libucrt:fpexcept.obj
 0004:0000198c       $pdata$_set_errno_from_matherr 000000018005b98c     libucrt:fpexcept.obj
 0004:00001998       $pdata$_clrfp              000000018005b998     libucrt:fpctrl.obj
 0004:000019a4       $pdata$_ctrlfp             000000018005b9a4     libucrt:fpctrl.obj
 0004:000019b0       $pdata$_set_statfp         000000018005b9b0     libucrt:fpctrl.obj
 0004:000019bc       $pdata$_statfp             000000018005b9bc     libucrt:fpctrl.obj
 0004:000019c8       $pdata$_IsNonwritableInCurrentImage 000000018005b9c8     LIBCMT:pesect.obj
 0004:00001a1c       $pdata$?dtor$0@?0??CheckVarsInitialized@@YAXXZ@4HA 000000018005ba1c     ConEmuTh.obj
 0004:00001a28       $pdata$?dtor$1@?0??CheckVarsInitialized@@YAXXZ@4HA 000000018005ba28     ConEmuTh.obj
 0004:00001a34       $pdata$?dtor$2@?0??CheckVarsInitialized@@YAXXZ@4HA 000000018005ba34     ConEmuTh.obj
 0004:00001a40       $pdata$?dtor$0@?0??StartPlugin@@YAXH@Z@4HA 000000018005ba40     ConEmuTh.obj
 0004:00001a4c       $pdata$?dtor$0@?0???0?$CQueueProcessor@PEAUIMAGE_CACHE_INFO@@@@QEAA@XZ@4HA 000000018005ba4c     ImgCache.obj
 0004:00001a58       $pdata$?dtor$0@?0??RequestItem@CImgCache@@QEAAHPEAUCePluginPanelItem@@I@Z@4HA 000000018005ba58     ImgCache.obj
 0004:00001a64       $pdata$?fin$0@?0??dllmain_crt_process_attach@@YAHQEAUHINSTANCE__@@QEAX@Z@4HA 000000018005ba64     LIBCMT:dll_dllmain.obj
 0004:00001a70       $pdata$?fin$0@?0??dllmain_crt_process_detach@@YAH_N@Z@4HA 000000018005ba70     LIBCMT:dll_dllmain.obj
 0004:00001a7c       $pdata$?filt$0@?0??dllmain_dispatch@@YAHQEAUHINSTANCE__@@KQEAX@Z@4HA 000000018005ba7c     LIBCMT:dll_dllmain.obj
 0004:00001a88       $pdata$__scrt_is_nonwritable_in_current_image$filt$0 000000018005ba88     LIBCMT:utility.obj
 0004:00001a94       $pdata$_CallSETranslator$filt$0 000000018005ba94     libvcruntime:risctrnsctrl.obj
 0004:00001aa0       $pdata$__CxxCallCatchBlock$filt$0 000000018005baa0     libvcruntime:frame.obj
 0004:00001aac       $pdata$__CxxCallCatchBlock$fin$1 000000018005baac     libvcruntime:frame.obj
 0004:00001ab8       $pdata$__FrameUnwindToState$filt$0 000000018005bab8     libvcruntime:frame.obj
 0004:00001ac4       $pdata$__FrameUnwindToState$fin$1 000000018005bac4     libvcruntime:frame.obj
 0004:00001ad0       $pdata$__DestructExceptionObject$filt$0 000000018005bad0     libvcruntime:ehhelpers.obj
 0004:00001adc       $pdata$?filt$0@?0??common_exit@@YAXHW4_crt_exit_cleanup_mode@@W4_crt_exit_return_mode@@@Z@4HA 000000018005badc     libucrt:exit.obj
 0004:00001ae8       $pdata$?fin$1@?0??common_exit@@YAXHW4_crt_exit_cleanup_mode@@W4_crt_exit_return_mode@@@Z@4HA 000000018005bae8     libucrt:exit.obj
 0004:00001af4       $pdata$?fin$0@?0???$?RV<lambda_e24bbb7b643b32fcea6fa61b31d4c984>@@AEAV<lambda_275893d493268fdec8709772e3fcec0e>@@V<lambda_9d71df4d7cf3f480f8d633942495c3b0>@@@?$__crt_seh_guarded_call@H@@QEAAH$$QEAV<lambda_e24bbb7b643b32fcea6fa61b31d4c984>@@AEAV<lambda_275893d493268fdec8709772e3fcec0e>@@$$QEAV<lambda_9d71df4d7cf3f480f8d633942495c3b0>@@@Z@4HA 000000018005baf4     libucrt:onexit.obj
 0004:00001b00       $pdata$?fin$0@?0???$?RV<lambda_99476a1ad63dd22509b5d3e65b0ffc95>@@AEAV<lambda_ad1ced32f4ac17aa236e5ef05d6b3b7c>@@V<lambda_f7424dd8d45958661754dc4f2697e9c3>@@@?$__crt_seh_guarded_call@X@@QEAAX$$QEAV<lambda_99476a1ad63dd22509b5d3e65b0ffc95>@@AEAV<lambda_ad1ced32f4ac17aa236e5ef05d6b3b7c>@@$$QEAV<lambda_f7424dd8d45958661754dc4f2697e9c3>@@@Z@4HA 000000018005bb00     libucrt:mbctype.obj
 0004:00001b00       $pdata$?fin$0@?0???$?RV<lambda_72d1df2b273a38828b1ce30cbf4cdab5>@@AEAV<lambda_876a65b173b8412d3a47c70a915b0cf4>@@V<lambda_41932305e351933ebe8f8be3ed8bb5dc>@@@?$__crt_seh_guarded_call@X@@QEAAX$$QEAV<lambda_72d1df2b273a38828b1ce30cbf4cdab5>@@AEAV<lambda_876a65b173b8412d3a47c70a915b0cf4>@@$$QEAV<lambda_41932305e351933ebe8f8be3ed8bb5dc>@@@Z@4HA 000000018005bb00     libucrt:per_thread_data.obj
 0004:00001b00       $pdata$?fin$0@?0???$?RV<lambda_46352004c1216016012b18bd6f87e700>@@AEAV<lambda_3bd07e1a1191394380780325891bf33f>@@V<lambda_334532d3f185bcaa59b5be82d7d22bff>@@@?$__crt_seh_guarded_call@X@@QEAAX$$QEAV<lambda_46352004c1216016012b18bd6f87e700>@@AEAV<lambda_3bd07e1a1191394380780325891bf33f>@@$$QEAV<lambda_334532d3f185bcaa59b5be82d7d22bff>@@@Z@4HA 000000018005bb00     libucrt:per_thread_data.obj
 0004:00001b00       $pdata$?fin$0@?0???$?RV<lambda_5e887d1dcbef67a5eb4283622ba103bf>@@AEAV<lambda_4466841279450cc726390878d4a41900>@@V<lambda_341c25c0346d94847f1f3c463c57e077>@@@?$__crt_seh_guarded_call@X@@QEAAX$$QEAV<lambda_5e887d1dcbef67a5eb4283622ba103bf>@@AEAV<lambda_4466841279450cc726390878d4a41900>@@$$QEAV<lambda_341c25c0346d94847f1f3c463c57e077>@@@Z@4HA 000000018005bb00     libucrt:per_thread_data.obj
 0004:00001b00       $pdata$?fin$0@?0???$?RV<lambda_fb3a7dec4e47f37f22dae91bb15c9095>@@AEAV<lambda_698284760c8add0bfb0756c19673e34b>@@V<lambda_dfb8eca1e75fef3034a8fb18dd509707>@@@?$__crt_seh_guarded_call@X@@QEAAX$$QEAV<lambda_fb3a7dec4e47f37f22dae91bb15c9095>@@AEAV<lambda_698284760c8add0bfb0756c19673e34b>@@$$QEAV<lambda_dfb8eca1e75fef3034a8fb18dd509707>@@@Z@4HA 000000018005bb00     libucrt:per_thread_data.obj
 0004:00001b00       $pdata$?fin$0@?0???$?RV<lambda_c36588078e9f5dfd39652860aa6b3aaf>@@AEAV<lambda_ec61778202f4f5fc7e7711acc23c3bca>@@V<lambda_dc9d2797ccde5d239b4a0efae8ebd7db>@@@?$__crt_seh_guarded_call@P6AXH@Z@@QEAAP6AXH@Z$$QEAV<lambda_c36588078e9f5dfd39652860aa6b3aaf>@@AEAV<lambda_ec61778202f4f5fc7e7711acc23c3bca>@@$$QEAV<lambda_dc9d2797ccde5d239b4a0efae8ebd7db>@@@Z@4HA 000000018005bb00     libucrt:signal.obj
 0004:00001b0c       $pdata$__acrt_update_thread_multibyte_data$fin$0 000000018005bb0c     libucrt:mbctype.obj
 0004:00001b18       $pdata$__acrt_lowio_ensure_fh_exists$fin$0 000000018005bb18     libucrt:osfinfo.obj
 0004:00001b18       $pdata$__acrt_initialize_lowio$fin$0 000000018005bb18     libucrt:ioinit.obj
 0004:00001b24       $pdata$_query_new_handler$fin$0 000000018005bb24     libucrt:new_handler.obj
 0004:00001b30       $pdata$raise$fin$0         000000018005bb30     libucrt:signal.obj
 0004:00001b3c       $pdata$__acrt_update_thread_locale_data$fin$0 000000018005bb3c     libucrt:locale_refcounting.obj
 0004:00001b3c       $pdata$__acrt_uninitialize_locale$fin$0 000000018005bb3c     libucrt:wsetlocale.obj
 0004:00001b48       $pdata$common_flush_all$fin$0 000000018005bb48     libucrt:fflush.obj
 0004:00001b54       $pdata$common_flush_all$fin$1 000000018005bb54     libucrt:fflush.obj
 0004:00001b60       $pdata$_fcloseall$fin$0    000000018005bb60     libucrt:closeall.obj
 0004:00001b6c       $pdata$?fin$0@?0???$?RV<lambda_bfedae4ebbf01fab1bb6dcc6a9e276e0>@@AEAV<lambda_2fe9b910cf3cbf4a0ab98a02ba45b3ec>@@V<lambda_237c231691f317818eb88cc1d5d642d6>@@@?$__crt_seh_guarded_call@H@@QEAAH$$QEAV<lambda_bfedae4ebbf01fab1bb6dcc6a9e276e0>@@AEAV<lambda_2fe9b910cf3cbf4a0ab98a02ba45b3ec>@@$$QEAV<lambda_237c231691f317818eb88cc1d5d642d6>@@@Z@4HA 000000018005bb6c     libucrt:close.obj
 0004:00001b6c       $pdata$?fin$0@?0???$?RV<lambda_b521505b218e5242e90febf6bfebc422>@@AEAV<lambda_6978c1fb23f02e42e1d9e99668cc68aa>@@V<lambda_314360699dd331753a4119843814e9a7>@@@?$__crt_seh_guarded_call@H@@QEAAH$$QEAV<lambda_b521505b218e5242e90febf6bfebc422>@@AEAV<lambda_6978c1fb23f02e42e1d9e99668cc68aa>@@$$QEAV<lambda_314360699dd331753a4119843814e9a7>@@@Z@4HA 000000018005bb6c     libucrt:commit.obj
 0004:00001b78       $pdata$_write$fin$0        000000018005bb78     libucrt:write.obj
 0004:00001b84       $pdata$fclose$fin$0        000000018005bb84     libucrt:fclose.obj
 0004:00001b90       $pdata$_ctrlfp$filt$0      000000018005bb90     libucrt:fpctrl.obj
 0004:00001b9c       $pdata$_IsNonwritableInCurrentImage$filt$0 000000018005bb9c     LIBCMT:pesect.obj
 0005:00000130       $R000000                   000000018005c130     ConEmuTh.res
 0005:00000448       $R000318                   000000018005c448     ConEmuTh.res
 0005:000014f0       $R0013C0                   000000018005d4f0     ConEmuTh.res
 0005:00001508       $R0013D8                   000000018005d508     ConEmuTh.res
